; Candidate 789
; ADRP+ADD at VM 0xfffffff0080acb50 (fileoff 0x10a8b50): page=0x1fefc7000 add_imm=0xdb8

0xfffffff0080acad0: 09d940b9  ldr	w9, [x8, #0xd8]
0xfffffff0080acad4: e9000035  cbnz	w9, #0xfffffff0080acaf0
0xfffffff0080acad8: 09dd40b9  ldr	w9, [x8, #0xdc]
0xfffffff0080acadc: a9000035  cbnz	w9, #0xfffffff0080acaf0
0xfffffff0080acae0: 09e140b9  ldr	w9, [x8, #0xe0]
0xfffffff0080acae4: 0a20a052  mov	w10, #0x1000000
0xfffffff0080acae8: 3f010a6b  cmp	w9, w10
0xfffffff0080acaec: a0efff54  b.eq	#0xfffffff0080ac8e0
0xfffffff0080acaf0: 09c540b9  ldr	w9, [x8, #0xc4]
0xfffffff0080acaf4: 29010035  cbnz	w9, #0xfffffff0080acb18
0xfffffff0080acaf8: 09c940b9  ldr	w9, [x8, #0xc8]
0xfffffff0080acafc: e9000035  cbnz	w9, #0xfffffff0080acb18
0xfffffff0080acb00: 09cd40b9  ldr	w9, [x8, #0xcc]
0xfffffff0080acb04: a9000035  cbnz	w9, #0xfffffff0080acb18
0xfffffff0080acb08: 09d140b9  ldr	w9, [x8, #0xd0]
0xfffffff0080acb0c: 0a20a052  mov	w10, #0x1000000
0xfffffff0080acb10: 3f010a6b  cmp	w9, w10
0xfffffff0080acb14: 60eeff54  b.eq	#0xfffffff0080ac8e0
0xfffffff0080acb18: 890b4039  ldrb	w9, [x28, #2]
0xfffffff0080acb1c: 3f011f72  tst	w9, #2
0xfffffff0080acb20: 09048052  mov	w9, #0x20
0xfffffff0080acb24: 0a088052  mov	w10, #0x40
0xfffffff0080acb28: 4901891a  csel	w9, w10, w9, eq
0xfffffff0080acb2c: 099900b9  str	w9, [x8, #0x98]
0xfffffff0080acb30: c80a01b0  adrp	x8, #0xfffffff00a205000
0xfffffff0080acb34: 088148b9  ldr	w8, [x8, #0x880]
0xfffffff0080acb38: 2901080a  and	w9, w9, w8
0xfffffff0080acb3c: 29091c12  and	w9, w9, #0x70
0xfffffff0080acb40: 08010e12  and	w8, w8, #0x40000
0xfffffff0080acb44: 3f010071  cmp	w9, #0
0xfffffff0080acb48: 0419407a  ccmp	w8, #0, #4, ne
0xfffffff0080acb4c: 00010054  b.eq	#0xfffffff0080acb6c
0xfffffff0080acb50: 207efff0  adrp	x0, #0xfffffff007073000
0xfffffff0080acb54: 00e03691  add	x0, x0, #0xdb8
0xfffffff0080acb58: 237efff0  adrp	x3, #0xfffffff007073000
0xfffffff0080acb5c: 63503c91  add	x3, x3, #0xf14
0xfffffff0080acb60: c18c8152  mov	w1, #0xc66
0xfffffff0080acb64: e20313aa  mov	x2, x19
0xfffffff0080acb68: 025e0094  bl	#0xfffffff0080c4370
0xfffffff0080acb6c: e00313aa  mov	x0, x19
0xfffffff0080acb70: 62018052  mov	w2, #0xb
0xfffffff0080acb74: a75e0094  bl	#0xfffffff0080c4610
0xfffffff0080acb78: ce000014  b	#0xfffffff0080aceb0
0xfffffff0080acb7c: 09d540b9  ldr	w9, [x8, #0xd4]
0xfffffff0080acb80: 29010035  cbnz	w9, #0xfffffff0080acba4
0xfffffff0080acb84: 09d940b9  ldr	w9, [x8, #0xd8]
0xfffffff0080acb88: e9000035  cbnz	w9, #0xfffffff0080acba4
0xfffffff0080acb8c: 09dd40b9  ldr	w9, [x8, #0xdc]
0xfffffff0080acb90: a9000035  cbnz	w9, #0xfffffff0080acba4
0xfffffff0080acb94: 09e140b9  ldr	w9, [x8, #0xe0]
0xfffffff0080acb98: 0a20a052  mov	w10, #0x1000000
0xfffffff0080acb9c: 3f010a6b  cmp	w9, w10
0xfffffff0080acba0: e0edff54  b.eq	#0xfffffff0080ac95c
0xfffffff0080acba4: 09c540b9  ldr	w9, [x8, #0xc4]
0xfffffff0080acba8: 29010035  cbnz	w9, #0xfffffff0080acbcc
0xfffffff0080acbac: 09c940b9  ldr	w9, [x8, #0xc8]
0xfffffff0080acbb0: e9000035  cbnz	w9, #0xfffffff0080acbcc
0xfffffff0080acbb4: 09cd40b9  ldr	w9, [x8, #0xcc]
0xfffffff0080acbb8: a9000035  cbnz	w9, #0xfffffff0080acbcc
0xfffffff0080acbbc: 09d140b9  ldr	w9, [x8, #0xd0]
0xfffffff0080acbc0: 0a20a052  mov	w10, #0x1000000
0xfffffff0080acbc4: 3f010a6b  cmp	w9, w10
0xfffffff0080acbc8: a0ecff54  b.eq	#0xfffffff0080ac95c
0xfffffff0080acbcc: 890b4039  ldrb	w9, [x28, #2]
