; Candidate 13292
; ADRP+ADD at VM 0xfffffff0092701c8 (fileoff 0x226c1c8): page=0x1fe24b000 add_imm=0xe14

0xfffffff009270148: 40008052  mov	w0, #2
0xfffffff00927014c: f903c297  bl	#0xfffffff0082f1130
0xfffffff009270150: 402500b4  cbz	x0, #0xfffffff0092705f8
0xfffffff009270154: f40300aa  mov	x20, x0
0xfffffff009270158: 880f8052  mov	w8, #0x7c
0xfffffff00927015c: 2863a89b  umaddl	x8, w25, w8, x24
0xfffffff009270160: 899b8252  mov	w9, #0x14dc
0xfffffff009270164: 1c01098b  add	x28, x8, x9
0xfffffff009270168: 80f34079  ldrh	w0, [x28, #0x78]
0xfffffff00927016c: ace5c197  bl	#0xfffffff0082e981c
0xfffffff009270170: 802400b4  cbz	x0, #0xfffffff009270600
0xfffffff009270174: f50300aa  mov	x21, x0
0xfffffff009270178: 4012fff0  adrp	x0, #0xfffffff0074bb000
0xfffffff00927017c: 008c3791  add	x0, x0, #0xde3
0xfffffff009270180: 98dbc297  bl	#0xfffffff008326fe0
0xfffffff009270184: 202400b4  cbz	x0, #0xfffffff009270608
0xfffffff009270188: f70300aa  mov	x23, x0
0xfffffff00927018c: 4012fff0  adrp	x0, #0xfffffff0074bb000
0xfffffff009270190: 00f43791  add	x0, x0, #0xdfd
0xfffffff009270194: 93dbc297  bl	#0xfffffff008326fe0
0xfffffff009270198: c02300b4  cbz	x0, #0xfffffff009270610
0xfffffff00927019c: f60300aa  mov	x22, x0
0xfffffff0092701a0: 4012fff0  adrp	x0, #0xfffffff0074bb000
0xfffffff0092701a4: 00103891  add	x0, x0, #0xe04
0xfffffff0092701a8: 8edbc297  bl	#0xfffffff008326fe0
0xfffffff0092701ac: 202700b4  cbz	x0, #0xfffffff009270690
0xfffffff0092701b0: fb0300aa  mov	x27, x0
0xfffffff0092701b4: 4012fff0  adrp	x0, #0xfffffff0074bb000
0xfffffff0092701b8: 002c3891  add	x0, x0, #0xe0b
0xfffffff0092701bc: 89dbc297  bl	#0xfffffff008326fe0
0xfffffff0092701c0: e01700f9  str	x0, [sp, #0x28]
0xfffffff0092701c4: a02600b4  cbz	x0, #0xfffffff009270698
0xfffffff0092701c8: 4012fff0  adrp	x0, #0xfffffff0074bb000
0xfffffff0092701cc: 00503891  add	x0, x0, #0xe14
0xfffffff0092701d0: 84dbc297  bl	#0xfffffff008326fe0
0xfffffff0092701d4: e00f00f9  str	x0, [sp, #0x18]
0xfffffff0092701d8: 402600b4  cbz	x0, #0xfffffff0092706a0
0xfffffff0092701dc: fbdb00a9  stp	x27, x22, [sp, #8]
0xfffffff0092701e0: fc1300f9  str	x28, [sp, #0x20]
0xfffffff0092701e4: 88f34079  ldrh	w8, [x28, #0x78]
0xfffffff0092701e8: 88160034  cbz	w8, #0xfffffff0092704b8
0xfffffff0092701ec: 1c0080d2  mov	x28, #0
0xfffffff0092701f0: e803192a  mov	w8, w25
0xfffffff0092701f4: 890f8052  mov	w9, #0x7c
0xfffffff0092701f8: 0861099b  madd	x8, x8, x9, x24
0xfffffff0092701fc: c99c8252  mov	w9, #0x14e6
0xfffffff009270200: 1901098b  add	x25, x8, x9
0xfffffff009270204: f70300f9  str	x23, [sp]
0xfffffff009270208: 80008052  mov	w0, #4
0xfffffff00927020c: c903c297  bl	#0xfffffff0082f1130
0xfffffff009270210: 402800b4  cbz	x0, #0xfffffff009270718
0xfffffff009270214: f80300aa  mov	x24, x0
0xfffffff009270218: 40008052  mov	w0, #2
0xfffffff00927021c: c503c297  bl	#0xfffffff0082f1130
0xfffffff009270220: fb0300aa  mov	x27, x0
0xfffffff009270224: 801200b4  cbz	x0, #0xfffffff009270474
0xfffffff009270228: 28635fb8  ldur	w8, [x25, #-0xa]
0xfffffff00927022c: 00ed7cd3  lsl	x0, x8, #4
0xfffffff009270230: 01088052  mov	w1, #0x40
0xfffffff009270234: 2ebcc297  bl	#0xfffffff00831f2ec
0xfffffff009270238: e20300aa  mov	x2, x0
0xfffffff00927023c: 100340f9  ldr	x16, [x24]
0xfffffff009270240: f10318aa  mov	x17, x24
0xfffffff009270244: 31b4f9f2  movk	x17, #0xcda1, lsl #48
