; Candidate 5121
; ADRP+ADD at VM 0xfffffff0087d9f30 (fileoff 0x17d5f30): page=0x1fea10000 add_imm=0xe80

0xfffffff0087d9eb0: c851ffb0  adrp	x8, #0xfffffff007212000
0xfffffff0087d9eb4: 085d2891  add	x8, x8, #0xa17
0xfffffff0087d9eb8: e84f02a9  stp	x8, x19, [sp, #0x20]
0xfffffff0087d9ebc: c851ffb0  adrp	x8, #0xfffffff007212000
0xfffffff0087d9ec0: 081d0291  add	x8, x8, #0x87
0xfffffff0087d9ec4: e02301a9  stp	x0, x8, [sp, #0x10]
0xfffffff0087d9ec8: 280a8052  mov	w8, #0x51
0xfffffff0087d9ecc: c051ffb0  adrp	x0, #0xfffffff007212000
0xfffffff0087d9ed0: 00902791  add	x0, x0, #0x9e4
0xfffffff0087d9ed4: f92300a9  stp	x25, x8, [sp]
0xfffffff0087d9ed8: 6275d797  bl	#0xfffffff007db7460
0xfffffff0087d9edc: 940300b5  cbnz	x20, #0xfffffff0087d9f4c
0xfffffff0087d9ee0: 47000014  b	#0xfffffff0087d9ffc
0xfffffff0087d9ee4: b2680394  bl	#0xfffffff0088b41ac
0xfffffff0087d9ee8: f90300aa  mov	x25, x0
0xfffffff0087d9eec: c0008052  mov	w0, #6
0xfffffff0087d9ef0: 58860294  bl	#0xfffffff00887b850
0xfffffff0087d9ef4: e80318aa  mov	x8, x24
0xfffffff0087d9ef8: 69ee40b9  ldr	w9, [x19, #0xec]
0xfffffff0087d9efc: f72305a9  stp	x23, x8, [sp, #0x50]
0xfffffff0087d9f00: f55b04a9  stp	x21, x22, [sp, #0x40]
0xfffffff0087d9f04: e95303a9  stp	x9, x20, [sp, #0x30]
0xfffffff0087d9f08: c851ffb0  adrp	x8, #0xfffffff007212000
0xfffffff0087d9f0c: 085d2891  add	x8, x8, #0xa17
0xfffffff0087d9f10: e84f02a9  stp	x8, x19, [sp, #0x20]
0xfffffff0087d9f14: c851ffb0  adrp	x8, #0xfffffff007212000
0xfffffff0087d9f18: 081d0291  add	x8, x8, #0x87
0xfffffff0087d9f1c: e02301a9  stp	x0, x8, [sp, #0x10]
0xfffffff0087d9f20: 280a8052  mov	w8, #0x51
0xfffffff0087d9f24: 0353fff0  adrp	x3, #0xfffffff00723c000
0xfffffff0087d9f28: 63fc2691  add	x3, x3, #0x9bf
0xfffffff0087d9f2c: f92300a9  stp	x25, x8, [sp]
0xfffffff0087d9f30: 8050ff90  adrp	x0, #0xfffffff0071e9000
0xfffffff0087d9f34: 00003a91  add	x0, x0, #0xe80
0xfffffff0087d9f38: 6191fff0  adrp	x1, #0xfffffff007a08000
0xfffffff0087d9f3c: 212c42f9  ldr	x1, [x1, #0x458]
0xfffffff0087d9f40: 02008052  mov	w2, #0
0xfffffff0087d9f44: 7b64ed97  bl	#0xfffffff008333130
0xfffffff0087d9f48: b40500b4  cbz	x20, #0xfffffff0087d9ffc
0xfffffff0087d9f4c: 950500b4  cbz	x21, #0xfffffff0087d9ffc
0xfffffff0087d9f50: 760500b4  cbz	x22, #0xfffffff0087d9ffc
0xfffffff0087d9f54: 570500b4  cbz	x23, #0xfffffff0087d9ffc
0xfffffff0087d9f58: 880e40f9  ldr	x8, [x20, #0x18]
0xfffffff0087d9f5c: e80800b4  cbz	x8, #0xfffffff0087da078
0xfffffff0087d9f60: 891240f9  ldr	x9, [x20, #0x20]
0xfffffff0087d9f64: a90800b4  cbz	x9, #0xfffffff0087da078
0xfffffff0087d9f68: 6a6e40f9  ldr	x10, [x19, #0xd8]
0xfffffff0087d9f6c: 6a0000b4  cbz	x10, #0xfffffff0087d9f78
0xfffffff0087d9f70: 6a7a40f9  ldr	x10, [x19, #0xf0]
0xfffffff0087d9f74: 8a1b00b4  cbz	x10, #0xfffffff0087da2e4
0xfffffff0087d9f78: 200a8052  mov	w0, #0x51
0xfffffff0087d9f7c: 81008052  mov	w1, #4
0xfffffff0087d9f80: 14860294  bl	#0xfffffff00887b7d0
0xfffffff0087d9f84: 20210034  cbz	w0, #0xfffffff0087da3a8
0xfffffff0087d9f88: 200a8052  mov	w0, #0x51
0xfffffff0087d9f8c: 23860294  bl	#0xfffffff00887b818
0xfffffff0087d9f90: fa0300aa  mov	x26, x0
0xfffffff0087d9f94: 86680394  bl	#0xfffffff0088b41ac
0xfffffff0087d9f98: f90300aa  mov	x25, x0
0xfffffff0087d9f9c: 80008052  mov	w0, #4
0xfffffff0087d9fa0: 2c860294  bl	#0xfffffff00887b850
0xfffffff0087d9fa4: 9a1c0034  cbz	w26, #0xfffffff0087da334
0xfffffff0087d9fa8: 686e40f9  ldr	x8, [x19, #0xd8]
0xfffffff0087d9fac: 69aa40f9  ldr	x9, [x19, #0x150]
