; Candidate 13858
; ADRP+ADD at VM 0xfffffff0095c5b84 (fileoff 0x25c1b84): page=0x1fe636000 add_imm=0xd00

0xfffffff0095c5b04: e14240b9  ldr	w1, [x23, #0x40]
0xfffffff0095c5b08: 9e44b697  bl	#0xfffffff008356d80
0xfffffff0095c5b0c: ff1e00f9  str	xzr, [x23, #0x38]
0xfffffff0095c5b10: a031ffd0  adrp	x0, #0xfffffff007bfb000
0xfffffff0095c5b14: 00003491  add	x0, x0, #0xd00
0xfffffff0095c5b18: e10317aa  mov	x1, x23
0xfffffff0095c5b1c: fc42b697  bl	#0xfffffff00835670c
0xfffffff0095c5b20: c22640f9  ldr	x2, [x22, #0x48]
0xfffffff0095c5b24: 420100b4  cbz	x2, #0xfffffff0095c5b4c
0xfffffff0095c5b28: c84240f9  ldr	x8, [x22, #0x80]
0xfffffff0095c5b2c: 481100b5  cbnz	x8, #0xfffffff0095c5d54
0xfffffff0095c5b30: c31245a9  ldp	x3, x4, [x22, #0x50]
0xfffffff0095c5b34: c59a46a9  ldp	x5, x6, [x22, #0x68]
0xfffffff0095c5b38: c73e40f9  ldr	x7, [x22, #0x78]
0xfffffff0095c5b3c: e00315aa  mov	x0, x21
0xfffffff0095c5b40: e10314aa  mov	x1, x20
0xfffffff0095c5b44: 6df00094  bl	#0xfffffff009601cf8
0xfffffff0095c5b48: 08000014  b	#0xfffffff0095c5b68
0xfffffff0095c5b4c: c83640f9  ldr	x8, [x22, #0x68]
0xfffffff0095c5b50: 681000b5  cbnz	x8, #0xfffffff0095c5d5c
0xfffffff0095c5b54: c23240f9  ldr	x2, [x22, #0x60]
0xfffffff0095c5b58: c34240f9  ldr	x3, [x22, #0x80]
0xfffffff0095c5b5c: e00315aa  mov	x0, x21
0xfffffff0095c5b60: e10314aa  mov	x1, x20
0xfffffff0095c5b64: 31f10094  bl	#0xfffffff009602028
0xfffffff0095c5b68: 600200f9  str	x0, [x19]
0xfffffff0095c5b6c: 0a000014  b	#0xfffffff0095c5b94
0xfffffff0095c5b70: e01e40f9  ldr	x0, [x23, #0x38]
0xfffffff0095c5b74: 800000b4  cbz	x0, #0xfffffff0095c5b84
0xfffffff0095c5b78: e14240b9  ldr	w1, [x23, #0x40]
0xfffffff0095c5b7c: 8144b697  bl	#0xfffffff008356d80
0xfffffff0095c5b80: ff1e00f9  str	xzr, [x23, #0x38]
0xfffffff0095c5b84: a031ffd0  adrp	x0, #0xfffffff007bfb000
0xfffffff0095c5b88: 00003491  add	x0, x0, #0xd00
0xfffffff0095c5b8c: e10317aa  mov	x1, x23
0xfffffff0095c5b90: df42b697  bl	#0xfffffff00835670c
0xfffffff0095c5b94: 00008052  mov	w0, #0
0xfffffff0095c5b98: fd7b51a9  ldp	x29, x30, [sp, #0x110]
0xfffffff0095c5b9c: f44f50a9  ldp	x20, x19, [sp, #0x100]
0xfffffff0095c5ba0: f6574fa9  ldp	x22, x21, [sp, #0xf0]
0xfffffff0095c5ba4: f85f4ea9  ldp	x24, x23, [sp, #0xe0]
0xfffffff0095c5ba8: fa674da9  ldp	x26, x25, [sp, #0xd0]
0xfffffff0095c5bac: ff830491  add	sp, sp, #0x120
0xfffffff0095c5bb0: ff0f5fd6  retab	
0xfffffff0095c5bb4: 08ffffb4  cbz	x8, #0xfffffff0095c5b94
0xfffffff0095c5bb8: c92640f9  ldr	x9, [x22, #0x48]
0xfffffff0095c5bbc: 690000b4  cbz	x9, #0xfffffff0095c5bc8
0xfffffff0095c5bc0: ca3240f9  ldr	x10, [x22, #0x60]
0xfffffff0095c5bc4: 8afeffb5  cbnz	x10, #0xfffffff0095c5b94
0xfffffff0095c5bc8: 020100b4  cbz	x2, #0xfffffff0095c5be8
0xfffffff0095c5bcc: ca3240f9  ldr	x10, [x22, #0x60]
0xfffffff0095c5bd0: 1f0100f1  cmp	x8, #0
0xfffffff0095c5bd4: 241940fa  ccmp	x9, #0, #4, ne
0xfffffff0095c5bd8: e8179f1a  cset	w8, eq
0xfffffff0095c5bdc: cafdffb5  cbnz	x10, #0xfffffff0095c5b94
0xfffffff0095c5be0: 88000037  tbnz	w8, #0, #0xfffffff0095c5bf0
0xfffffff0095c5be4: ecffff17  b	#0xfffffff0095c5b94
0xfffffff0095c5be8: 480000b4  cbz	x8, #0xfffffff0095c5bf0
0xfffffff0095c5bec: 49fdffb5  cbnz	x9, #0xfffffff0095c5b94
0xfffffff0095c5bf0: 88c24339  ldrb	w8, [x20, #0xf0]
0xfffffff0095c5bf4: 28010034  cbz	w8, #0xfffffff0095c5c18
0xfffffff0095c5bf8: 620900b4  cbz	x2, #0xfffffff0095c5d24
0xfffffff0095c5bfc: c31243a9  ldp	x3, x4, [x22, #0x30]
0xfffffff0095c5c00: c59a44a9  ldp	x5, x6, [x22, #0x48]
