; Candidate 14086
; ADRP+ADD at VM 0xfffffff0096c9cf4 (fileoff 0x26c5cf4): page=0x1fdec4000 add_imm=0xec5

0xfffffff0096c9c74: 301ac1da  autda	x16, x17
0xfffffff0096c9c78: 080e4ff8  ldr	x8, [x16, #0xf0]!
0xfffffff0096c9c7c: e90310aa  mov	x9, x16
0xfffffff0096c9c80: e00314aa  mov	x0, x20
0xfffffff0096c9c84: e1031baa  mov	x1, x27
0xfffffff0096c9c88: e2031aaa  mov	x2, x26
0xfffffff0096c9c8c: f10309aa  mov	x17, x9
0xfffffff0096c9c90: d1b3f1f2  movk	x17, #0x8d9e, lsl #48
0xfffffff0096c9c94: 11093fd7  blraa	x8, x17
0xfffffff0096c9c98: 7b0100b4  cbz	x27, #0xfffffff0096c9cc4
0xfffffff0096c9c9c: 700340f9  ldr	x16, [x27]
0xfffffff0096c9ca0: f1031baa  mov	x17, x27
0xfffffff0096c9ca4: 31b4f9f2  movk	x17, #0xcda1, lsl #48
0xfffffff0096c9ca8: 301ac1da  autda	x16, x17
0xfffffff0096c9cac: 088e42f8  ldr	x8, [x16, #0x28]!
0xfffffff0096c9cb0: e90310aa  mov	x9, x16
0xfffffff0096c9cb4: e0031baa  mov	x0, x27
0xfffffff0096c9cb8: f10309aa  mov	x17, x9
0xfffffff0096c9cbc: f150e7f2  movk	x17, #0x3a87, lsl #48
0xfffffff0096c9cc0: 11093fd7  blraa	x8, x17
0xfffffff0096c9cc4: 7a0100b4  cbz	x26, #0xfffffff0096c9cf0
0xfffffff0096c9cc8: 500340f9  ldr	x16, [x26]
0xfffffff0096c9ccc: f1031aaa  mov	x17, x26
0xfffffff0096c9cd0: 31b4f9f2  movk	x17, #0xcda1, lsl #48
0xfffffff0096c9cd4: 301ac1da  autda	x16, x17
0xfffffff0096c9cd8: 088e42f8  ldr	x8, [x16, #0x28]!
0xfffffff0096c9cdc: e90310aa  mov	x9, x16
0xfffffff0096c9ce0: e0031aaa  mov	x0, x26
0xfffffff0096c9ce4: f10309aa  mov	x17, x9
0xfffffff0096c9ce8: f150e7f2  movk	x17, #0x3a87, lsl #48
0xfffffff0096c9cec: 11093fd7  blraa	x8, x17
0xfffffff0096c9cf0: 79050034  cbz	w25, #0xfffffff0096c9d9c
0xfffffff0096c9cf4: 20f6fe90  adrp	x0, #0xfffffff00758d000
0xfffffff0096c9cf8: 00143b91  add	x0, x0, #0xec5
0xfffffff0096c9cfc: a57db197  bl	#0xfffffff008329390
0xfffffff0096c9d00: fa0300aa  mov	x26, x0
0xfffffff0096c9d04: e003192a  mov	w0, w25
0xfffffff0096c9d08: 01048052  mov	w1, #0x20
0xfffffff0096c9d0c: 7855b197  bl	#0xfffffff00831f2ec
0xfffffff0096c9d10: f90300aa  mov	x25, x0
0xfffffff0096c9d14: 900240f9  ldr	x16, [x20]
0xfffffff0096c9d18: f10314aa  mov	x17, x20
0xfffffff0096c9d1c: 31b4f9f2  movk	x17, #0xcda1, lsl #48
0xfffffff0096c9d20: 301ac1da  autda	x16, x17
0xfffffff0096c9d24: 080e4ff8  ldr	x8, [x16, #0xf0]!
0xfffffff0096c9d28: e90310aa  mov	x9, x16
0xfffffff0096c9d2c: e00314aa  mov	x0, x20
0xfffffff0096c9d30: e1031aaa  mov	x1, x26
0xfffffff0096c9d34: e20319aa  mov	x2, x25
0xfffffff0096c9d38: f10309aa  mov	x17, x9
0xfffffff0096c9d3c: d1b3f1f2  movk	x17, #0x8d9e, lsl #48
0xfffffff0096c9d40: 11093fd7  blraa	x8, x17
0xfffffff0096c9d44: 7a0100b4  cbz	x26, #0xfffffff0096c9d70
0xfffffff0096c9d48: 500340f9  ldr	x16, [x26]
0xfffffff0096c9d4c: f1031aaa  mov	x17, x26
0xfffffff0096c9d50: 31b4f9f2  movk	x17, #0xcda1, lsl #48
0xfffffff0096c9d54: 301ac1da  autda	x16, x17
0xfffffff0096c9d58: 088e42f8  ldr	x8, [x16, #0x28]!
0xfffffff0096c9d5c: e90310aa  mov	x9, x16
0xfffffff0096c9d60: e0031aaa  mov	x0, x26
0xfffffff0096c9d64: f10309aa  mov	x17, x9
0xfffffff0096c9d68: f150e7f2  movk	x17, #0x3a87, lsl #48
0xfffffff0096c9d6c: 11093fd7  blraa	x8, x17
0xfffffff0096c9d70: 790100b4  cbz	x25, #0xfffffff0096c9d9c
