; Candidate 14608
; ADRP+ADD at VM 0xfffffff009860f6c (fileoff 0x285cf6c): page=0x1fdd5e000 add_imm=0xded

0xfffffff009860eec: 11093fd7  blraa	x8, x17
0xfffffff009860ef0: e0100034  cbz	w0, #0xfffffff00986110c
0xfffffff009860ef4: 700240f9  ldr	x16, [x19]
0xfffffff009860ef8: f10313aa  mov	x17, x19
0xfffffff009860efc: 31b4f9f2  movk	x17, #0xcda1, lsl #48
0xfffffff009860f00: 301ac1da  autda	x16, x17
0xfffffff009860f04: 116f80d2  mov	x17, #0x378
0xfffffff009860f08: 1002118b  add	x16, x16, x17
0xfffffff009860f0c: 080240f9  ldr	x8, [x16]
0xfffffff009860f10: e90310aa  mov	x9, x16
0xfffffff009860f14: e00313aa  mov	x0, x19
0xfffffff009860f18: f10309aa  mov	x17, x9
0xfffffff009860f1c: d171ecf2  movk	x17, #0x638e, lsl #48
0xfffffff009860f20: 11093fd7  blraa	x8, x17
0xfffffff009860f24: 402000b4  cbz	x0, #0xfffffff00986132c
0xfffffff009860f28: f50300aa  mov	x21, x0
0xfffffff009860f2c: e00313aa  mov	x0, x19
0xfffffff009860f30: 466df897  bl	#0xfffffff00967c448
0xfffffff009860f34: 605e00f9  str	x0, [x19, #0xb8]
0xfffffff009860f38: a01f00b4  cbz	x0, #0xfffffff00986132c
0xfffffff009860f3c: e10300aa  mov	x1, x0
0xfffffff009860f40: b00240f9  ldr	x16, [x21]
0xfffffff009860f44: f10315aa  mov	x17, x21
0xfffffff009860f48: 31b4f9f2  movk	x17, #0xcda1, lsl #48
0xfffffff009860f4c: 301ac1da  autda	x16, x17
0xfffffff009860f50: 080e4af8  ldr	x8, [x16, #0xa0]!
0xfffffff009860f54: e90310aa  mov	x9, x16
0xfffffff009860f58: e00315aa  mov	x0, x21
0xfffffff009860f5c: f10309aa  mov	x17, x9
0xfffffff009860f60: 113de2f2  movk	x17, #0x11e8, lsl #48
0xfffffff009860f64: 11093fd7  blraa	x8, x17
0xfffffff009860f68: 201e0035  cbnz	w0, #0xfffffff00986132c
0xfffffff009860f6c: e0eafed0  adrp	x0, #0xfffffff0075be000
0xfffffff009860f70: 00b43791  add	x0, x0, #0xded
0xfffffff009860f74: 010080d2  mov	x1, #0
0xfffffff009860f78: 46a4ac97  bl	#0xfffffff00838a090
0xfffffff009860f7c: 600d00b4  cbz	x0, #0xfffffff009861128
0xfffffff009860f80: f50300aa  mov	x21, x0
0xfffffff009860f84: 606240f9  ldr	x0, [x19, #0xc0]
0xfffffff009860f88: e10315aa  mov	x1, x21
0xfffffff009860f8c: 99b7f797  bl	#0xfffffff00964edf0
0xfffffff009860f90: 401100b4  cbz	x0, #0xfffffff0098611b8
0xfffffff009860f94: 681ffff0  adrp	x8, #0xfffffff007c4f000
0xfffffff009860f98: 085d44f9  ldr	x8, [x8, #0x8b8]
0xfffffff009860f9c: 000140f9  ldr	x0, [x8]
0xfffffff009860fa0: 100000b0  adrp	x16, #0xfffffff009861000
0xfffffff009860fa4: 10b20d91  add	x16, x16, #0x36c
0xfffffff009860fa8: d13b8cd2  mov	x17, #0x61de
0xfffffff009860fac: 3002c1da  pacia	x16, x17
0xfffffff009860fb0: e20310aa  mov	x2, x16
0xfffffff009860fb4: e10315aa  mov	x1, x21
0xfffffff009860fb8: e30313aa  mov	x3, x19
0xfffffff009860fbc: 040080d2  mov	x4, #0
0xfffffff009860fc0: 05008052  mov	w5, #0
0xfffffff009860fc4: e4a2ac97  bl	#0xfffffff008389b54
0xfffffff009860fc8: 606e00f9  str	x0, [x19, #0xd8]
0xfffffff009860fcc: c01900b4  cbz	x0, #0xfffffff009861304
0xfffffff009860fd0: 681ffff0  adrp	x8, #0xfffffff007c4f000
0xfffffff009860fd4: 086944f9  ldr	x8, [x8, #0x8d0]
0xfffffff009860fd8: 000140f9  ldr	x0, [x8]
0xfffffff009860fdc: 100000b0  adrp	x16, #0xfffffff009861000
0xfffffff009860fe0: 10a21391  add	x16, x16, #0x4e8
0xfffffff009860fe4: d13b8cd2  mov	x17, #0x61de
0xfffffff009860fe8: 3002c1da  pacia	x16, x17
