; Candidate 16043
; ADRP+ADD at VM 0xfffffff009e0f6ac (fileoff 0x2e0b6ac): page=0x1fd894000 add_imm=0xe00

0xfffffff009e0f62c: e00313aa  mov	x0, x19
0xfffffff009e0f630: 557e0094  bl	#0xfffffff009e2ef84
0xfffffff009e0f634: e0550034  cbz	w0, #0xfffffff009e100f0
0xfffffff009e0f638: 881340f9  ldr	x8, [x28, #0x20]
0xfffffff009e0f63c: a80000b4  cbz	x8, #0xfffffff009e0f650
0xfffffff009e0f640: a1c303d1  sub	x1, x29, #0xf0
0xfffffff009e0f644: e00313aa  mov	x0, x19
0xfffffff009e0f648: 4f7e0094  bl	#0xfffffff009e2ef84
0xfffffff009e0f64c: 20550034  cbz	w0, #0xfffffff009e100f0
0xfffffff009e0f650: 880f40f9  ldr	x8, [x28, #0x18]
0xfffffff009e0f654: a80000b4  cbz	x8, #0xfffffff009e0f668
0xfffffff009e0f658: e1830c91  add	x1, sp, #0x320
0xfffffff009e0f65c: e00313aa  mov	x0, x19
0xfffffff009e0f660: 497e0094  bl	#0xfffffff009e2ef84
0xfffffff009e0f664: 60540034  cbz	w0, #0xfffffff009e100f0
0xfffffff009e0f668: 880b40f9  ldr	x8, [x28, #0x10]
0xfffffff009e0f66c: a80000b4  cbz	x8, #0xfffffff009e0f680
0xfffffff009e0f670: e1830b91  add	x1, sp, #0x2e0
0xfffffff009e0f674: e00313aa  mov	x0, x19
0xfffffff009e0f678: 6d7e0094  bl	#0xfffffff009e2f02c
0xfffffff009e0f67c: a0530034  cbz	w0, #0xfffffff009e100f0
0xfffffff009e0f680: 880740f9  ldr	x8, [x28, #8]
0xfffffff009e0f684: a80000b4  cbz	x8, #0xfffffff009e0f698
0xfffffff009e0f688: e1830a91  add	x1, sp, #0x2a0
0xfffffff009e0f68c: e00313aa  mov	x0, x19
0xfffffff009e0f690: 917e0094  bl	#0xfffffff009e2f0d4
0xfffffff009e0f694: e0520034  cbz	w0, #0xfffffff009e100f0
0xfffffff009e0f698: ea3340f9  ldr	x10, [sp, #0x60]
0xfffffff009e0f69c: a8c302d1  sub	x8, x29, #0xb0
0xfffffff009e0f6a0: e9030491  add	x9, sp, #0x100
0xfffffff009e0f6a4: e8ab00a9  stp	x8, x10, [sp, #8]
0xfffffff009e0f6a8: e90300f9  str	x9, [sp]
0xfffffff009e0f6ac: a0c4fe90  adrp	x0, #0xfffffff0076a3000
0xfffffff009e0f6b0: 00003891  add	x0, x0, #0xe00
0xfffffff009e0f6b4: c1f8fed0  adrp	x1, #0xfffffff007d29000
0xfffffff009e0f6b8: 216844f9  ldr	x1, [x1, #0x8d0]
0xfffffff009e0f6bc: 83d0fed0  adrp	x3, #0xfffffff007821000
0xfffffff009e0f6c0: 63b01091  add	x3, x3, #0x42c
0xfffffff009e0f6c4: 42008052  mov	w2, #2
0xfffffff009e0f6c8: 9a8e9497  bl	#0xfffffff008333130
0xfffffff009e0f6cc: 01138397  bl	#0xfffffff007ed42d0
0xfffffff009e0f6d0: f60300aa  mov	x22, x0
0xfffffff009e0f6d4: e1030391  add	x1, sp, #0xc0
0xfffffff009e0f6d8: e00313aa  mov	x0, x19
0xfffffff009e0f6dc: a87e0094  bl	#0xfffffff009e2f17c
0xfffffff009e0f6e0: f50300aa  mov	x21, x0
0xfffffff009e0f6e4: fb128397  bl	#0xfffffff007ed42d0
0xfffffff009e0f6e8: 15daff35  cbnz	w21, #0xfffffff009e0f228
0xfffffff009e0f6ec: f70300aa  mov	x23, x0
0xfffffff009e0f6f0: 000080d2  mov	x0, #0
0xfffffff009e0f6f4: 010080d2  mov	x1, #0
0xfffffff009e0f6f8: 02008052  mov	w2, #0
0xfffffff009e0f6fc: 23008052  mov	w3, #1
0xfffffff009e0f700: 3dae8f97  bl	#0xfffffff0081faff4
0xfffffff009e0f704: f40300aa  mov	x20, x0
0xfffffff009e0f708: 604f00b4  cbz	x0, #0xfffffff009e100f4
0xfffffff009e0f70c: 19008052  mov	w25, #0
0xfffffff009e0f710: 950340f9  ldr	x21, [x28]
0xfffffff009e0f714: 9ad0fe90  adrp	x26, #0xfffffff00781f000
0xfffffff009e0f718: 5abf2491  add	x26, x26, #0x92f
0xfffffff009e0f71c: 98d0fe90  adrp	x24, #0xfffffff00781f000
0xfffffff009e0f720: 18033091  add	x24, x24, #0xc00
0xfffffff009e0f724: 9bd0fe90  adrp	x27, #0xfffffff00781f000
0xfffffff009e0f728: 7bbf2d91  add	x27, x27, #0xb6f
