; Candidate 15052
; ADRP+ADD at VM 0xfffffff009a67ad8 (fileoff 0x2a63ad8): page=0x1fe24e000 add_imm=0xdc8

0xfffffff009a67a58: f10309aa  mov	x17, x9
0xfffffff009a67a5c: f150e7f2  movk	x17, #0x3a87, lsl #48
0xfffffff009a67a60: 11093fd7  blraa	x8, x17
0xfffffff009a67a64: 7f5200f9  str	xzr, [x19, #0xa0]
0xfffffff009a67a68: 604e40f9  ldr	x0, [x19, #0x98]
0xfffffff009a67a6c: 400100b4  cbz	x0, #0xfffffff009a67a94
0xfffffff009a67a70: 100040f9  ldr	x16, [x0]
0xfffffff009a67a74: f10300aa  mov	x17, x0
0xfffffff009a67a78: 31b4f9f2  movk	x17, #0xcda1, lsl #48
0xfffffff009a67a7c: 301ac1da  autda	x16, x17
0xfffffff009a67a80: 088e42f8  ldr	x8, [x16, #0x28]!
0xfffffff009a67a84: e90310aa  mov	x9, x16
0xfffffff009a67a88: f10309aa  mov	x17, x9
0xfffffff009a67a8c: f150e7f2  movk	x17, #0x3a87, lsl #48
0xfffffff009a67a90: 11093fd7  blraa	x8, x17
0xfffffff009a67a94: 7f4e00f9  str	xzr, [x19, #0x98]
0xfffffff009a67a98: 604a40f9  ldr	x0, [x19, #0x90]
0xfffffff009a67a9c: 400100b4  cbz	x0, #0xfffffff009a67ac4
0xfffffff009a67aa0: 100040f9  ldr	x16, [x0]
0xfffffff009a67aa4: f10300aa  mov	x17, x0
0xfffffff009a67aa8: 31b4f9f2  movk	x17, #0xcda1, lsl #48
0xfffffff009a67aac: 301ac1da  autda	x16, x17
0xfffffff009a67ab0: 088e42f8  ldr	x8, [x16, #0x28]!
0xfffffff009a67ab4: e90310aa  mov	x9, x16
0xfffffff009a67ab8: f10309aa  mov	x17, x9
0xfffffff009a67abc: f150e7f2  movk	x17, #0x3a87, lsl #48
0xfffffff009a67ac0: 11093fd7  blraa	x8, x17
0xfffffff009a67ac4: 7f4a00f9  str	xzr, [x19, #0x90]
0xfffffff009a67ac8: 685e40f9  ldr	x8, [x19, #0xb8]
0xfffffff009a67acc: 010140f9  ldr	x1, [x8]
0xfffffff009a67ad0: e10000b4  cbz	x1, #0xfffffff009a67aec
0xfffffff009a67ad4: 1f0100f9  str	xzr, [x8]
0xfffffff009a67ad8: 6012ffd0  adrp	x0, #0xfffffff007cb5000
0xfffffff009a67adc: 00203791  add	x0, x0, #0xdc8
0xfffffff009a67ae0: 0bbba397  bl	#0xfffffff00835670c
0xfffffff009a67ae4: 685e40f9  ldr	x8, [x19, #0xb8]
0xfffffff009a67ae8: 1f0100f9  str	xzr, [x8]
0xfffffff009a67aec: 00008052  mov	w0, #0
0xfffffff009a67af0: fd7b41a9  ldp	x29, x30, [sp, #0x10]
0xfffffff009a67af4: f44fc2a8  ldp	x20, x19, [sp], #0x20
0xfffffff009a67af8: ff0f5fd6  retab	
0xfffffff009a67afc: 7f2303d5  pacibsp	
0xfffffff009a67b00: f44fbea9  stp	x20, x19, [sp, #-0x20]!
0xfffffff009a67b04: fd7b01a9  stp	x29, x30, [sp, #0x10]
0xfffffff009a67b08: fd430091  add	x29, sp, #0x10
0xfffffff009a67b0c: f30300aa  mov	x19, x0
0xfffffff009a67b10: b5ffff97  bl	#0xfffffff009a679e4
0xfffffff009a67b14: 685e40f9  ldr	x8, [x19, #0xb8]
0xfffffff009a67b18: a80400b4  cbz	x8, #0xfffffff009a67bac
0xfffffff009a67b1c: 001540f9  ldr	x0, [x8, #0x28]
0xfffffff009a67b20: e00000b4  cbz	x0, #0xfffffff009a67b3c
0xfffffff009a67b24: 5d238e97  bl	#0xfffffff007df0898
0xfffffff009a67b28: 685e40f9  ldr	x8, [x19, #0xb8]
0xfffffff009a67b2c: 001540f9  ldr	x0, [x8, #0x28]
0xfffffff009a67b30: 97218e97  bl	#0xfffffff007df018c
0xfffffff009a67b34: 685e40f9  ldr	x8, [x19, #0xb8]
0xfffffff009a67b38: 1f1500f9  str	xzr, [x8, #0x28]
0xfffffff009a67b3c: 000940f9  ldr	x0, [x8, #0x10]
0xfffffff009a67b40: 800000b4  cbz	x0, #0xfffffff009a67b50
0xfffffff009a67b44: dabea397  bl	#0xfffffff0083576ac
0xfffffff009a67b48: 685e40f9  ldr	x8, [x19, #0xb8]
0xfffffff009a67b4c: 1f0900f9  str	xzr, [x8, #0x10]
0xfffffff009a67b50: 000d40f9  ldr	x0, [x8, #0x18]
0xfffffff009a67b54: 800000b4  cbz	x0, #0xfffffff009a67b64
