; Candidate 1543
; ADRP+ADD at VM 0xfffffff00846aca0 (fileoff 0x1466ca0): page=0x1fec3e000 add_imm=0xebb

0xfffffff00846ac20: a2d2e897  bl	#0xfffffff007e9f6a8
0xfffffff00846ac24: 20050034  cbz	w0, #0xfffffff00846acc8
0xfffffff00846ac28: e061ffd0  adrp	x0, #0xfffffff0070a8000
0xfffffff00846ac2c: 00f43991  add	x0, x0, #0xe7d
0xfffffff00846ac30: e10314aa  mov	x1, x20
0xfffffff00846ac34: 9dd2e897  bl	#0xfffffff007e9f6a8
0xfffffff00846ac38: 80040034  cbz	w0, #0xfffffff00846acc8
0xfffffff00846ac3c: e061ffd0  adrp	x0, #0xfffffff0070a8000
0xfffffff00846ac40: 001c3a91  add	x0, x0, #0xe87
0xfffffff00846ac44: e10314aa  mov	x1, x20
0xfffffff00846ac48: 98d2e897  bl	#0xfffffff007e9f6a8
0xfffffff00846ac4c: e0030034  cbz	w0, #0xfffffff00846acc8
0xfffffff00846ac50: e061ffd0  adrp	x0, #0xfffffff0070a8000
0xfffffff00846ac54: 00383a91  add	x0, x0, #0xe8e
0xfffffff00846ac58: e10314aa  mov	x1, x20
0xfffffff00846ac5c: 93d2e897  bl	#0xfffffff007e9f6a8
0xfffffff00846ac60: 40030034  cbz	w0, #0xfffffff00846acc8
0xfffffff00846ac64: e061ffd0  adrp	x0, #0xfffffff0070a8000
0xfffffff00846ac68: 005c3a91  add	x0, x0, #0xe97
0xfffffff00846ac6c: e10314aa  mov	x1, x20
0xfffffff00846ac70: 8ed2e897  bl	#0xfffffff007e9f6a8
0xfffffff00846ac74: a0020034  cbz	w0, #0xfffffff00846acc8
0xfffffff00846ac78: e061ffd0  adrp	x0, #0xfffffff0070a8000
0xfffffff00846ac7c: 00703a91  add	x0, x0, #0xe9c
0xfffffff00846ac80: e10314aa  mov	x1, x20
0xfffffff00846ac84: 89d2e897  bl	#0xfffffff007e9f6a8
0xfffffff00846ac88: 00020034  cbz	w0, #0xfffffff00846acc8
0xfffffff00846ac8c: e061ffd0  adrp	x0, #0xfffffff0070a8000
0xfffffff00846ac90: 00b03a91  add	x0, x0, #0xeac
0xfffffff00846ac94: e10314aa  mov	x1, x20
0xfffffff00846ac98: 84d2e897  bl	#0xfffffff007e9f6a8
0xfffffff00846ac9c: 60010034  cbz	w0, #0xfffffff00846acc8
0xfffffff00846aca0: e061ffd0  adrp	x0, #0xfffffff0070a8000
0xfffffff00846aca4: 00ec3a91  add	x0, x0, #0xebb
0xfffffff00846aca8: e10314aa  mov	x1, x20
0xfffffff00846acac: 7fd2e897  bl	#0xfffffff007e9f6a8
0xfffffff00846acb0: c0000034  cbz	w0, #0xfffffff00846acc8
0xfffffff00846acb4: e061ffd0  adrp	x0, #0xfffffff0070a8000
0xfffffff00846acb8: 00343b91  add	x0, x0, #0xecd
0xfffffff00846acbc: e10314aa  mov	x1, x20
0xfffffff00846acc0: 7ad2e897  bl	#0xfffffff007e9f6a8
0xfffffff00846acc4: 80000035  cbnz	w0, #0xfffffff00846acd4
0xfffffff00846acc8: e83340b9  ldr	w8, [sp, #0x30]
0xfffffff00846accc: 08011f32  orr	w8, w8, #2
0xfffffff00846acd0: e83300b9  str	w8, [sp, #0x30]
0xfffffff00846acd4: 88ed0090  adrp	x8, #0xfffffff00a21a000
0xfffffff00846acd8: 010145f9  ldr	x1, [x8, #0xa00]
0xfffffff00846acdc: d00240f9  ldr	x16, [x22]
0xfffffff00846ace0: f10316aa  mov	x17, x22
0xfffffff00846ace4: 31b4f9f2  movk	x17, #0xcda1, lsl #48
0xfffffff00846ace8: 301ac1da  autda	x16, x17
0xfffffff00846acec: 113e80d2  mov	x17, #0x1f0
0xfffffff00846acf0: 1002118b  add	x16, x16, x17
0xfffffff00846acf4: 080240f9  ldr	x8, [x16]
0xfffffff00846acf8: e90310aa  mov	x9, x16
0xfffffff00846acfc: e00316aa  mov	x0, x22
0xfffffff00846ad00: f10309aa  mov	x17, x9
0xfffffff00846ad04: 51a1ebf2  movk	x17, #0x5d0a, lsl #48
0xfffffff00846ad08: 11093fd7  blraa	x8, x17
0xfffffff00846ad0c: f50300aa  mov	x21, x0
0xfffffff00846ad10: c80a40f9  ldr	x8, [x22, #0x10]
0xfffffff00846ad14: 680000b4  cbz	x8, #0xfffffff00846ad20
0xfffffff00846ad18: 1a0540f9  ldr	x26, [x8, #8]
0xfffffff00846ad1c: 02000014  b	#0xfffffff00846ad24
