; Candidate 16148
; ADRP+ADD at VM 0xfffffff009e299c4 (fileoff 0x2e259c4): page=0x1fd87a000 add_imm=0xe00

0xfffffff009e29944: e00314aa  mov	x0, x20
0xfffffff009e29948: 366bff97  bl	#0xfffffff009e04620
0xfffffff009e2994c: 800240f9  ldr	x0, [x20]
0xfffffff009e29950: e4830091  add	x4, sp, #0x20
0xfffffff009e29954: e10315aa  mov	x1, x21
0xfffffff009e29958: e20319aa  mov	x2, x25
0xfffffff009e2995c: 23008052  mov	w3, #1
0xfffffff009e29960: 216aff97  bl	#0xfffffff009e041e4
0xfffffff009e29964: fa0300aa  mov	x26, x0
0xfffffff009e29968: 00040034  cbz	w0, #0xfffffff009e299e8
0xfffffff009e2996c: 7b010034  cbz	w27, #0xfffffff009e29998
0xfffffff009e29970: 801240f9  ldr	x0, [x20, #0x20]
0xfffffff009e29974: 200100b4  cbz	x0, #0xfffffff009e29998
0xfffffff009e29978: e80300aa  mov	x8, x0
0xfffffff009e2997c: 090d41f8  ldr	x9, [x8, #0x10]!
0xfffffff009e29980: e10318aa  mov	x1, x24
0xfffffff009e29984: 28093fd7  blraa	x9, x8
0xfffffff009e29988: 88620091  add	x8, x20, #0x18
0xfffffff009e2998c: 09008012  mov	w9, #-1
0xfffffff009e29990: 0801e9b8  ldaddal	w9, w8, [x8]
0xfffffff009e29994: 680a0034  cbz	w8, #0xfffffff009e29ae0
0xfffffff009e29998: 970000b4  cbz	x23, #0xfffffff009e299a8
0xfffffff009e2999c: e00314aa  mov	x0, x20
0xfffffff009e299a0: e10317aa  mov	x1, x23
0xfffffff009e299a4: 7b6bff97  bl	#0xfffffff009e04790
0xfffffff009e299a8: e00313aa  mov	x0, x19
0xfffffff009e299ac: 94137e97  bl	#0xfffffff007dae7fc
0xfffffff009e299b0: 5f0b0071  cmp	w26, #2
0xfffffff009e299b4: 80050054  b.eq	#0xfffffff009e29a64
0xfffffff009e299b8: fa040034  cbz	w26, #0xfffffff009e29a54
0xfffffff009e299bc: f5eb00a9  stp	x21, x26, [sp, #8]
0xfffffff009e299c0: f60300f9  str	x22, [sp]
0xfffffff009e299c4: c0c3fed0  adrp	x0, #0xfffffff0076a3000
0xfffffff009e299c8: 00003891  add	x0, x0, #0xe00
0xfffffff009e299cc: 01f8fe90  adrp	x1, #0xfffffff007d29000
0xfffffff009e299d0: 216844f9  ldr	x1, [x1, #0x8d0]
0xfffffff009e299d4: a3cffef0  adrp	x3, #0xfffffff007820000
0xfffffff009e299d8: 63c43691  add	x3, x3, #0xdb1
0xfffffff009e299dc: 02008052  mov	w2, #0
0xfffffff009e299e0: d4259497  bl	#0xfffffff008333130
0xfffffff009e299e4: 20000014  b	#0xfffffff009e29a64
0xfffffff009e299e8: e11340f9  ldr	x1, [sp, #0x20]
0xfffffff009e299ec: 810100b4  cbz	x1, #0xfffffff009e29a1c
0xfffffff009e299f0: 281040f9  ldr	x8, [x1, #0x20]
0xfffffff009e299f4: 480500b5  cbnz	x8, #0xfffffff009e29a9c
0xfffffff009e299f8: e00314aa  mov	x0, x20
0xfffffff009e299fc: 306bff97  bl	#0xfffffff009e046bc
0xfffffff009e29a00: e81340f9  ldr	x8, [sp, #0x20]
0xfffffff009e29a04: 171100f9  str	x23, [x8, #0x20]
0xfffffff009e29a08: 1b410039  strb	w27, [x8, #0x10]
0xfffffff009e29a0c: 181d00f9  str	x24, [x8, #0x38]
0xfffffff009e29a10: f70100b4  cbz	x23, #0xfffffff009e29a4c
0xfffffff009e29a14: e80e00f9  str	x8, [x23, #0x18]
0xfffffff009e29a18: 0d000014  b	#0xfffffff009e29a4c
0xfffffff009e29a1c: e08743a9  ldp	x0, x1, [sp, #0x38]
0xfffffff009e29a20: 726aff97  bl	#0xfffffff009e043e8
0xfffffff009e29a24: 000300b4  cbz	x0, #0xfffffff009e29a84
0xfffffff009e29a28: e10300aa  mov	x1, x0
0xfffffff009e29a2c: 171000f9  str	x23, [x0, #0x20]
0xfffffff009e29a30: 1b400039  strb	w27, [x0, #0x10]
0xfffffff009e29a34: 181c00f9  str	x24, [x0, #0x38]
0xfffffff009e29a38: 570000b4  cbz	x23, #0xfffffff009e29a40
0xfffffff009e29a3c: e10e00f9  str	x1, [x23, #0x18]
0xfffffff009e29a40: e2830091  add	x2, sp, #0x20
