; Candidate 9371
; ADRP+ADD at VM 0xfffffff008a33a74 (fileoff 0x1a2fa74): page=0x1ff026000 add_imm=0xd18

0xfffffff008a339f4: fd8ce497  bl	#0xfffffff008356de8
0xfffffff008a339f8: 614e41f9  ldr	x1, [x19, #0x298]
0xfffffff008a339fc: 810200b4  cbz	x1, #0xfffffff008a33a4c
0xfffffff008a33a00: 280040f9  ldr	x8, [x1]
0xfffffff008a33a04: 480200b4  cbz	x8, #0xfffffff008a33a4c
0xfffffff008a33a08: 685241f9  ldr	x8, [x19, #0x2a0]
0xfffffff008a33a0c: e80100b4  cbz	x8, #0xfffffff008a33a48
0xfffffff008a33a10: 000140f9  ldr	x0, [x8]
0xfffffff008a33a14: 600100b4  cbz	x0, #0xfffffff008a33a40
0xfffffff008a33a18: 100040f9  ldr	x16, [x0]
0xfffffff008a33a1c: f10300aa  mov	x17, x0
0xfffffff008a33a20: 31b4f9f2  movk	x17, #0xcda1, lsl #48
0xfffffff008a33a24: 301ac1da  autda	x16, x17
0xfffffff008a33a28: 088e42f8  ldr	x8, [x16, #0x28]!
0xfffffff008a33a2c: e90310aa  mov	x9, x16
0xfffffff008a33a30: f10309aa  mov	x17, x9
0xfffffff008a33a34: f150e7f2  movk	x17, #0x3a87, lsl #48
0xfffffff008a33a38: 11093fd7  blraa	x8, x17
0xfffffff008a33a3c: 685241f9  ldr	x8, [x19, #0x2a0]
0xfffffff008a33a40: 1f0100f9  str	xzr, [x8]
0xfffffff008a33a44: 614e41f9  ldr	x1, [x19, #0x298]
0xfffffff008a33a48: c1fdffb5  cbnz	x1, #0xfffffff008a33a00
0xfffffff008a33a4c: 689642b9  ldr	w8, [x19, #0x294]
0xfffffff008a33a50: 02f17dd3  lsl	x2, x8, #3
0xfffffff008a33a54: 7f4e01f9  str	xzr, [x19, #0x298]
0xfffffff008a33a58: 2081ffd0  adrp	x0, #0xfffffff007a59000
0xfffffff008a33a5c: 00203391  add	x0, x0, #0xcc8
0xfffffff008a33a60: e28ce497  bl	#0xfffffff008356de8
0xfffffff008a33a64: 689642b9  ldr	w8, [x19, #0x294]
0xfffffff008a33a68: 02f17dd3  lsl	x2, x8, #3
0xfffffff008a33a6c: 615241f9  ldr	x1, [x19, #0x2a0]
0xfffffff008a33a70: 7f5201f9  str	xzr, [x19, #0x2a0]
0xfffffff008a33a74: 2081ffd0  adrp	x0, #0xfffffff007a59000
0xfffffff008a33a78: 00603491  add	x0, x0, #0xd18
0xfffffff008a33a7c: db8ce497  bl	#0xfffffff008356de8
0xfffffff008a33a80: 603641f9  ldr	x0, [x19, #0x268]
0xfffffff008a33a84: 400100b4  cbz	x0, #0xfffffff008a33aac
0xfffffff008a33a88: 100040f9  ldr	x16, [x0]
0xfffffff008a33a8c: f10300aa  mov	x17, x0
0xfffffff008a33a90: 31b4f9f2  movk	x17, #0xcda1, lsl #48
0xfffffff008a33a94: 301ac1da  autda	x16, x17
0xfffffff008a33a98: 088e42f8  ldr	x8, [x16, #0x28]!
0xfffffff008a33a9c: e90310aa  mov	x9, x16
0xfffffff008a33aa0: f10309aa  mov	x17, x9
0xfffffff008a33aa4: f150e7f2  movk	x17, #0x3a87, lsl #48
0xfffffff008a33aa8: 11093fd7  blraa	x8, x17
0xfffffff008a33aac: 7f3601f9  str	xzr, [x19, #0x268]
0xfffffff008a33ab0: 603a41f9  ldr	x0, [x19, #0x270]
0xfffffff008a33ab4: 400100b4  cbz	x0, #0xfffffff008a33adc
0xfffffff008a33ab8: 100040f9  ldr	x16, [x0]
0xfffffff008a33abc: f10300aa  mov	x17, x0
0xfffffff008a33ac0: 31b4f9f2  movk	x17, #0xcda1, lsl #48
0xfffffff008a33ac4: 301ac1da  autda	x16, x17
0xfffffff008a33ac8: 088e42f8  ldr	x8, [x16, #0x28]!
0xfffffff008a33acc: e90310aa  mov	x9, x16
0xfffffff008a33ad0: f10309aa  mov	x17, x9
0xfffffff008a33ad4: f150e7f2  movk	x17, #0x3a87, lsl #48
0xfffffff008a33ad8: 11093fd7  blraa	x8, x17
0xfffffff008a33adc: 7f3a01f9  str	xzr, [x19, #0x270]
0xfffffff008a33ae0: 605e41f9  ldr	x0, [x19, #0x2b8]
0xfffffff008a33ae4: 400100b4  cbz	x0, #0xfffffff008a33b0c
0xfffffff008a33ae8: 100040f9  ldr	x16, [x0]
0xfffffff008a33aec: f10300aa  mov	x17, x0
0xfffffff008a33af0: 31b4f9f2  movk	x17, #0xcda1, lsl #48
