; Candidate 14052
; ADRP+ADD at VM 0xfffffff0096ac900 (fileoff 0x26a8900): page=0x1fdee1000 add_imm=0xd31

0xfffffff0096ac880: 11093fd7  blraa	x8, x17
0xfffffff0096ac884: f40300aa  mov	x20, x0
0xfffffff0096ac888: 605e40f9  ldr	x0, [x19, #0xb8]
0xfffffff0096ac88c: 15f7feb0  adrp	x21, #0xfffffff00758d000
0xfffffff0096ac890: b5ca3491  add	x21, x21, #0xd32
0xfffffff0096ac894: e01200b4  cbz	x0, #0xfffffff0096acaf0
0xfffffff0096ac898: 100040f9  ldr	x16, [x0]
0xfffffff0096ac89c: f10300aa  mov	x17, x0
0xfffffff0096ac8a0: 31b4f9f2  movk	x17, #0xcda1, lsl #48
0xfffffff0096ac8a4: 301ac1da  autda	x16, x17
0xfffffff0096ac8a8: 088e4af8  ldr	x8, [x16, #0xa8]!
0xfffffff0096ac8ac: e90310aa  mov	x9, x16
0xfffffff0096ac8b0: f10309aa  mov	x17, x9
0xfffffff0096ac8b4: f130e5f2  movk	x17, #0x2987, lsl #48
0xfffffff0096ac8b8: 11093fd7  blraa	x8, x17
0xfffffff0096ac8bc: e80300aa  mov	x8, x0
0xfffffff0096ac8c0: 605e40f9  ldr	x0, [x19, #0xb8]
0xfffffff0096ac8c4: 09f7feb0  adrp	x9, #0xfffffff00758d000
0xfffffff0096ac8c8: 29c53491  add	x9, x9, #0xd31
0xfffffff0096ac8cc: 1f0100f1  cmp	x8, #0
0xfffffff0096ac8d0: b502899a  csel	x21, x21, x9, eq
0xfffffff0096ac8d4: e01000b4  cbz	x0, #0xfffffff0096acaf0
0xfffffff0096ac8d8: 100040f9  ldr	x16, [x0]
0xfffffff0096ac8dc: f10300aa  mov	x17, x0
0xfffffff0096ac8e0: 31b4f9f2  movk	x17, #0xcda1, lsl #48
0xfffffff0096ac8e4: 301ac1da  autda	x16, x17
0xfffffff0096ac8e8: 088e4af8  ldr	x8, [x16, #0xa8]!
0xfffffff0096ac8ec: e90310aa  mov	x9, x16
0xfffffff0096ac8f0: f10309aa  mov	x17, x9
0xfffffff0096ac8f4: f130e5f2  movk	x17, #0x2987, lsl #48
0xfffffff0096ac8f8: 11093fd7  blraa	x8, x17
0xfffffff0096ac8fc: a00f00b4  cbz	x0, #0xfffffff0096acaf0
0xfffffff0096ac900: 00f7feb0  adrp	x0, #0xfffffff00758d000
0xfffffff0096ac904: 00c43491  add	x0, x0, #0xd31
0xfffffff0096ac908: 87000014  b	#0xfffffff0096acb24
0xfffffff0096ac90c: 605e40f9  ldr	x0, [x19, #0xb8]
0xfffffff0096ac910: 600100b4  cbz	x0, #0xfffffff0096ac93c
0xfffffff0096ac914: 100040f9  ldr	x16, [x0]
0xfffffff0096ac918: f10300aa  mov	x17, x0
0xfffffff0096ac91c: 31b4f9f2  movk	x17, #0xcda1, lsl #48
0xfffffff0096ac920: 301ac1da  autda	x16, x17
0xfffffff0096ac924: 088e4af8  ldr	x8, [x16, #0xa8]!
0xfffffff0096ac928: e90310aa  mov	x9, x16
0xfffffff0096ac92c: f10309aa  mov	x17, x9
0xfffffff0096ac930: f130e5f2  movk	x17, #0x2987, lsl #48
0xfffffff0096ac934: 11093fd7  blraa	x8, x17
0xfffffff0096ac938: c00100b5  cbnz	x0, #0xfffffff0096ac970
0xfffffff0096ac93c: 700240f9  ldr	x16, [x19]
0xfffffff0096ac940: f10313aa  mov	x17, x19
0xfffffff0096ac944: 31b4f9f2  movk	x17, #0xcda1, lsl #48
0xfffffff0096ac948: 301ac1da  autda	x16, x17
0xfffffff0096ac94c: 113d80d2  mov	x17, #0x1e8
0xfffffff0096ac950: 1002118b  add	x16, x16, x17
0xfffffff0096ac954: 080240f9  ldr	x8, [x16]
0xfffffff0096ac958: e90310aa  mov	x9, x16
0xfffffff0096ac95c: e00313aa  mov	x0, x19
0xfffffff0096ac960: 010080d2  mov	x1, #0
0xfffffff0096ac964: f10309aa  mov	x17, x9
0xfffffff0096ac968: 9193e1f2  movk	x17, #0xc9c, lsl #48
0xfffffff0096ac96c: 11093fd7  blraa	x8, x17
0xfffffff0096ac970: 605e40f9  ldr	x0, [x19, #0xb8]
0xfffffff0096ac974: c00200b4  cbz	x0, #0xfffffff0096ac9cc
0xfffffff0096ac978: 100040f9  ldr	x16, [x0]
0xfffffff0096ac97c: f10300aa  mov	x17, x0
