; Candidate 14428
; ADRP+ADD at VM 0xfffffff009785944 (fileoff 0x2781944): page=0x1fde08000 add_imm=0xec5

0xfffffff0097858c4: 301ac1da  autda	x16, x17
0xfffffff0097858c8: 080e4ff8  ldr	x8, [x16, #0xf0]!
0xfffffff0097858cc: e90310aa  mov	x9, x16
0xfffffff0097858d0: e00314aa  mov	x0, x20
0xfffffff0097858d4: e1031aaa  mov	x1, x26
0xfffffff0097858d8: e20319aa  mov	x2, x25
0xfffffff0097858dc: f10309aa  mov	x17, x9
0xfffffff0097858e0: d1b3f1f2  movk	x17, #0x8d9e, lsl #48
0xfffffff0097858e4: 11093fd7  blraa	x8, x17
0xfffffff0097858e8: 7a0100b4  cbz	x26, #0xfffffff009785914
0xfffffff0097858ec: 500340f9  ldr	x16, [x26]
0xfffffff0097858f0: f1031aaa  mov	x17, x26
0xfffffff0097858f4: 31b4f9f2  movk	x17, #0xcda1, lsl #48
0xfffffff0097858f8: 301ac1da  autda	x16, x17
0xfffffff0097858fc: 088e42f8  ldr	x8, [x16, #0x28]!
0xfffffff009785900: e90310aa  mov	x9, x16
0xfffffff009785904: e0031aaa  mov	x0, x26
0xfffffff009785908: f10309aa  mov	x17, x9
0xfffffff00978590c: f150e7f2  movk	x17, #0x3a87, lsl #48
0xfffffff009785910: 11093fd7  blraa	x8, x17
0xfffffff009785914: 790100b4  cbz	x25, #0xfffffff009785940
0xfffffff009785918: 300340f9  ldr	x16, [x25]
0xfffffff00978591c: f10319aa  mov	x17, x25
0xfffffff009785920: 31b4f9f2  movk	x17, #0xcda1, lsl #48
0xfffffff009785924: 301ac1da  autda	x16, x17
0xfffffff009785928: 088e42f8  ldr	x8, [x16, #0x28]!
0xfffffff00978592c: e90310aa  mov	x9, x16
0xfffffff009785930: e00319aa  mov	x0, x25
0xfffffff009785934: f10309aa  mov	x17, x9
0xfffffff009785938: f150e7f2  movk	x17, #0x3a87, lsl #48
0xfffffff00978593c: 11093fd7  blraa	x8, x17
0xfffffff009785940: 78050034  cbz	w24, #0xfffffff0097859ec
0xfffffff009785944: 40f0fe90  adrp	x0, #0xfffffff00758d000
0xfffffff009785948: 00143b91  add	x0, x0, #0xec5
0xfffffff00978594c: 918eae97  bl	#0xfffffff008329390
0xfffffff009785950: f90300aa  mov	x25, x0
0xfffffff009785954: e003182a  mov	w0, w24
0xfffffff009785958: 01048052  mov	w1, #0x20
0xfffffff00978595c: 6466ae97  bl	#0xfffffff00831f2ec
0xfffffff009785960: f80300aa  mov	x24, x0
0xfffffff009785964: 900240f9  ldr	x16, [x20]
0xfffffff009785968: f10314aa  mov	x17, x20
0xfffffff00978596c: 31b4f9f2  movk	x17, #0xcda1, lsl #48
0xfffffff009785970: 301ac1da  autda	x16, x17
0xfffffff009785974: 080e4ff8  ldr	x8, [x16, #0xf0]!
0xfffffff009785978: e90310aa  mov	x9, x16
0xfffffff00978597c: e00314aa  mov	x0, x20
0xfffffff009785980: e10319aa  mov	x1, x25
0xfffffff009785984: e20318aa  mov	x2, x24
0xfffffff009785988: f10309aa  mov	x17, x9
0xfffffff00978598c: d1b3f1f2  movk	x17, #0x8d9e, lsl #48
0xfffffff009785990: 11093fd7  blraa	x8, x17
0xfffffff009785994: 790100b4  cbz	x25, #0xfffffff0097859c0
0xfffffff009785998: 300340f9  ldr	x16, [x25]
0xfffffff00978599c: f10319aa  mov	x17, x25
0xfffffff0097859a0: 31b4f9f2  movk	x17, #0xcda1, lsl #48
0xfffffff0097859a4: 301ac1da  autda	x16, x17
0xfffffff0097859a8: 088e42f8  ldr	x8, [x16, #0x28]!
0xfffffff0097859ac: e90310aa  mov	x9, x16
0xfffffff0097859b0: e00319aa  mov	x0, x25
0xfffffff0097859b4: f10309aa  mov	x17, x9
0xfffffff0097859b8: f150e7f2  movk	x17, #0x3a87, lsl #48
0xfffffff0097859bc: 11093fd7  blraa	x8, x17
0xfffffff0097859c0: 780100b4  cbz	x24, #0xfffffff0097859ec
