
sub_fffffff007d5d820:
0xfffffff007d5d820:  04 00 80 d2   mov	x4, #0
0xfffffff007d5d824:  05 00 80 d2   mov	x5, #0
0xfffffff007d5d828:  e3 03 03 2a   mov	w3, w3
0xfffffff007d5d82c:  ; loc_fffffff007d5d82c
0xfffffff007d5d82c:  20 12 00 b4   cbz	x0, loc_fffffff007d5da70 ; в¤µ 0x244
0xfffffff007d5d830:  06 18 40 b9   ldr	w6, [x0, #0x18]
0xfffffff007d5d834:  df 00 02 eb   cmp	x6, x2
0xfffffff007d5d838:  ad 00 00 54   b.le	loc_fffffff007d5d84c ; в¤µ 0x14
0xfffffff007d5d83c:  08 08 40 f9   ldr	x8, [x0, #0x10]
0xfffffff007d5d840:  c6 00 02 cb   sub	x6, x6, x2
0xfffffff007d5d844:  08 01 02 8b   add	x8, x8, x2
0xfffffff007d5d848:  0a 00 00 14   b	loc_fffffff007d5d870 ; в¤µ 0x28
0xfffffff007d5d84c:  ; loc_fffffff007d5d84c
0xfffffff007d5d84c:  42 00 06 cb   sub	x2, x2, x6
0xfffffff007d5d850:  61 00 00 b5   cbnz	x1, loc_fffffff007d5d85c ; в¤µ 0xc
0xfffffff007d5d854:  e0 03 03 aa   mov	x0, x3
0xfffffff007d5d858:  c0 03 5f d6   ret
0xfffffff007d5d85c:  ; loc_fffffff007d5d85c
0xfffffff007d5d85c:  00 00 40 f9   ldr	x0, [x0]
0xfffffff007d5d860:  f3 ff ff 17   b	loc_fffffff007d5d82c ; в¤ґ -0x34
0xfffffff007d5d864:  ; loc_fffffff007d5d864
0xfffffff007d5d864:  60 10 00 b4   cbz	x0, loc_fffffff007d5da70 ; в¤µ 0x20c
0xfffffff007d5d868:  06 18 40 b9   ldr	w6, [x0, #0x18]
0xfffffff007d5d86c:  08 08 40 f9   ldr	x8, [x0, #0x10]
0xfffffff007d5d870:  ; loc_fffffff007d5d870
0xfffffff007d5d870:  a6 0d 00 b4   cbz	x6, loc_fffffff007d5da24 ; в¤µ 0x1b4
0xfffffff007d5d874:  df 00 01 eb   cmp	x6, x1
0xfffffff007d5d878:  c6 d0 81 9a   csel	x6, x6, x1, le
0xfffffff007d5d87c:  21 00 06 cb   sub	x1, x1, x6
0xfffffff007d5d880:  1f 01 40 f2   tst	x8, #0x1
0xfffffff007d5d884:  07 00 80 d2   mov	x7, #0
0xfffffff007d5d888:  0a 00 80 d2   mov	x10, #0
0xfffffff007d5d88c:  a0 00 00 54   b.eq	loc_fffffff007d5d8a0 ; в¤µ 0x14
0xfffffff007d5d890:  07 15 40 38   ldrb	w7, [x8], #0x1
0xfffffff007d5d894:  a5 00 40 d2   eor	x5, x5, #0x1
0xfffffff007d5d898:  c6 04 00 d1   sub	x6, x6, #0x1
0xfffffff007d5d89c:  e7 5c 18 53   lsl	w7, w7, #0x8
0xfffffff007d5d8a0:  ; loc_fffffff007d5d8a0
0xfffffff007d5d8a0:  1f 01 7f f2   tst	x8, #0x2
0xfffffff007d5d8a4:  e4 03 05 aa   mov	x4, x5
0xfffffff007d5d8a8:  c0 00 00 54   b.eq	loc_fffffff007d5d8c0 ; в¤µ 0x18
0xfffffff007d5d8ac:  df 08 00 f1   cmp	x6, #0x2
0xfffffff007d5d8b0:  0b 0a 00 54   b.lt	loc_fffffff007d5d9f0 ; в¤µ 0x140
0xfffffff007d5d8b4:  09 25 40 78   ldrh	w9, [x8], #0x2
0xfffffff007d5d8b8:  c6 08 00 d1   sub	x6, x6, #0x2
0xfffffff007d5d8bc:  e7 00 09 0b   add	w7, w7, w9
0xfffffff007d5d8c0:  ; loc_fffffff007d5d8c0
0xfffffff007d5d8c0:  1f 01 7e f2   tst	x8, #0x4
0xfffffff007d5d8c4:  e0 00 00 54   b.eq	loc_fffffff007d5d8e0 ; в¤µ 0x1c
0xfffffff007d5d8c8:  df 10 00 f1   cmp	x6, #0x4
0xfffffff007d5d8cc:  8b 08 00 54   b.lt	loc_fffffff007d5d9dc ; в¤µ 0x110
0xfffffff007d5d8d0:  09 45 40 b8   ldr	w9, [x8], #0x4
0xfffffff007d5d8d4:  c6 10 00 d1   sub	x6, x6, #0x4
0xfffffff007d5d8d8:  e7 00 09 2b   adds	w7, w7, w9
0xfffffff007d5d8dc:  e7 00 0a 9a   adc	x7, x7, x10
0xfffffff007d5d8e0:  ; loc_fffffff007d5d8e0
0xfffffff007d5d8e0:  c6 00 01 f1   subs	x6, x6, #0x40
0xfffffff007d5d8e4:  4b 04 00 54   b.lt	loc_fffffff007d5d96c ; в¤µ 0x88
0xfffffff007d5d8e8:  ff 03 02 d1   sub	sp, sp, #0x80
0xfffffff007d5d8ec:  eb 03 00 91   mov	x11, sp
0xfffffff007d5d8f0:  60 29 9f 4c   st1	{v0.4s, v1.4s, v2.4s, v3.4s}, [x11], #0x40
0xfffffff007d5d8f4:  64 29 9f 4c   st1	{v4.4s, v5.4s, v6.4s, v7.4s}, [x11], #0x40
0xfffffff007d5d8f8:  e3 00 27 1e   fmov	s3, w7
0xfffffff007d5d8fc:  00 1c 20 6e   eor	v0.16b, v0.16b, v0.16b
0xfffffff007d5d900:  21 1c 21 6e   eor	v1.16b, v1.16b, v1.16b
0xfffffff007d5d904:  42 1c 22 6e   eor	v2.16b, v2.16b, v2.16b
0xfffffff007d5d908:  04 29 df 4c   ld1	{v4.4s, v5.4s, v6.4s, v7.4s}, [x8], #0x40
0xfffffff007d5d90c:  c6 00 01 f1   subs	x6, x6, #0x40
0xfffffff007d5d910:  6b 01 00 54   b.lt	loc_fffffff007d5d93c ; в¤µ 0x2c
0xfffffff007d5d914:  ; loc_fffffff007d5d914
0xfffffff007d5d914:  c6 00 01 f1   subs	x6, x6, #0x40
0xfffffff007d5d918:  80 68 a0 6e   uadalp	v0.2d, v4.4s
0xfffffff007d5d91c:  04 79 df 4c   ld1	{v4.4s}, [x8], #0x10
0xfffffff007d5d920:  a1 68 a0 6e   uadalp	v1.2d, v5.4s
0xfffffff007d5d924:  05 79 df 4c   ld1	{v5.4s}, [x8], #0x10
0xfffffff007d5d928:  c2 68 a0 6e   uadalp	v2.2d, v6.4s
0xfffffff007d5d92c:  06 79 df 4c   ld1	{v6.4s}, [x8], #0x10
0xfffffff007d5d930:  e3 68 a0 6e   uadalp	v3.2d, v7.4s
0xfffffff007d5d934:  07 79 df 4c   ld1	{v7.4s}, [x8], #0x10
0xfffffff007d5d938:  ea fe ff 54   b.ge	loc_fffffff007d5d914 ; в¤ґ -0x24
0xfffffff007d5d93c:  ; loc_fffffff007d5d93c
0xfffffff007d5d93c:  80 68 a0 6e   uadalp	v0.2d, v4.4s
0xfffffff007d5d940:  a1 68 a0 6e   uadalp	v1.2d, v5.4s
0xfffffff007d5d944:  c2 68 a0 6e   uadalp	v2.2d, v6.4s
0xfffffff007d5d948:  e3 68 a0 6e   uadalp	v3.2d, v7.4s
0xfffffff007d5d94c:  00 84 e1 4e   add	v0.2d, v0.2d, v1.2d
0xfffffff007d5d950:  42 84 e3 4e   add	v2.2d, v2.2d, v3.2d
0xfffffff007d5d954:  00 b8 f1 5e   addp	d0, v0.2d
0xfffffff007d5d958:  42 b8 f1 5e   addp	d2, v2.2d
0xfffffff007d5d95c:  00 84 e2 4e   add	v0.2d, v0.2d, v2.2d
0xfffffff007d5d960:  07 00 66 9e   fmov	x7, d0
0xfffffff007d5d964:  e0 2b df 4c   ld1	{v0.4s, v1.4s, v2.4s, v3.4s}, [sp], #0x40
0xfffffff007d5d968:  e4 2b df 4c   ld1	{v4.4s, v5.4s, v6.4s, v7.4s}, [sp], #0x40
0xfffffff007d5d96c:  ; loc_fffffff007d5d96c
0xfffffff007d5d96c:  df 00 7b f2   tst	x6, #0x20
0xfffffff007d5d970:  20 01 00 54   b.eq	loc_fffffff007d5d994 ; в¤µ 0x24
0xfffffff007d5d974:  09 29 c1 a8   ldp	x9, x10, [x8], #0x10
0xfffffff007d5d978:  0b 31 c1 a8   ldp	x11, x12, [x8], #0x10
0xfffffff007d5d97c:  e7 00 09 ab   adds	x7, x7, x9
0xfffffff007d5d980:  09 00 80 d2   mov	x9, #0
0xfffffff007d5d984:  e7 00 0a ba   adcs	x7, x7, x10
0xfffffff007d5d988:  e7 00 0b ba   adcs	x7, x7, x11
0xfffffff007d5d98c:  e7 00 0c ba   adcs	x7, x7, x12
0xfffffff007d5d990:  e7 00 09 9a   adc	x7, x7, x9
0xfffffff007d5d994:  ; loc_fffffff007d5d994
0xfffffff007d5d994:  df 00 7c f2   tst	x6, #0x10
0xfffffff007d5d998:  c0 00 00 54   b.eq	loc_fffffff007d5d9b0 ; в¤µ 0x18
0xfffffff007d5d99c:  09 29 c1 a8   ldp	x9, x10, [x8], #0x10
0xfffffff007d5d9a0:  e7 00 09 ab   adds	x7, x7, x9
0xfffffff007d5d9a4:  09 00 80 d2   mov	x9, #0
0xfffffff007d5d9a8:  e7 00 0a ba   adcs	x7, x7, x10
0xfffffff007d5d9ac:  e7 00 09 9a   adc	x7, x7, x9
0xfffffff007d5d9b0:  ; loc_fffffff007d5d9b0
0xfffffff007d5d9b0:  df 00 7d f2   tst	x6, #0x8
0xfffffff007d5d9b4:  0a 00 80 d2   mov	x10, #0
0xfffffff007d5d9b8:  80 00 00 54   b.eq	loc_fffffff007d5d9c8 ; в¤µ 0x10
0xfffffff007d5d9bc:  09 85 40 f8   ldr	x9, [x8], #0x8
0xfffffff007d5d9c0:  e7 00 09 ab   adds	x7, x7, x9
0xfffffff007d5d9c4:  e7 00 0a 9a   adc	x7, x7, x10
0xfffffff007d5d9c8:  ; loc_fffffff007d5d9c8
0xfffffff007d5d9c8:  df 00 7e f2   tst	x6, #0x4
0xfffffff007d5d9cc:  80 00 00 54   b.eq	loc_fffffff007d5d9dc ; в¤µ 0x10
0xfffffff007d5d9d0:  09 45 40 b8   ldr	w9, [x8], #0x4
0xfffffff007d5d9d4:  e7 00 09 ab   adds	x7, x7, x9
0xfffffff007d5d9d8:  e7 00 0a 9a   adc	x7, x7, x10
0xfffffff007d5d9dc:  ; loc_fffffff007d5d9dc
0xfffffff007d5d9dc:  df 00 7f f2   tst	x6, #0x2
0xfffffff007d5d9e0:  80 00 00 54   b.eq	loc_fffffff007d5d9f0 ; в¤µ 0x10
0xfffffff007d5d9e4:  09 25 40 78   ldrh	w9, [x8], #0x2
0xfffffff007d5d9e8:  e7 00 09 ab   adds	x7, x7, x9
0xfffffff007d5d9ec:  e7 00 0a 9a   adc	x7, x7, x10
0xfffffff007d5d9f0:  ; loc_fffffff007d5d9f0
0xfffffff007d5d9f0:  df 00 40 f2   tst	x6, #0x1
0xfffffff007d5d9f4:  a0 00 00 54   b.eq	loc_fffffff007d5da08 ; в¤µ 0x14
0xfffffff007d5d9f8:  09 15 40 38   ldrb	w9, [x8], #0x1
0xfffffff007d5d9fc:  e7 00 09 ab   adds	x7, x7, x9
0xfffffff007d5da00:  e7 00 0a 9a   adc	x7, x7, x10
0xfffffff007d5da04:  a5 00 40 d2   eor	x5, x5, #0x1
0xfffffff007d5da08:  ; loc_fffffff007d5da08
0xfffffff007d5da08:  44 00 00 b4   cbz	x4, loc_fffffff007d5da10 ; в¤µ 0x8
0xfffffff007d5da0c:  e7 e0 c7 93   ror	x7, x7, #0x38
0xfffffff007d5da10:  ; loc_fffffff007d5da10
0xfffffff007d5da10:  63 80 47 8b   add	x3, x3, x7, lsr #0x20
0xfffffff007d5da14:  e7 03 07 2a   mov	w7, w7
0xfffffff007d5da18:  63 00 07 8b   add	x3, x3, x7
0xfffffff007d5da1c:  e7 03 03 2a   mov	w7, w3
0xfffffff007d5da20:  e3 80 43 8b   add	x3, x7, x3, lsr #0x20
0xfffffff007d5da24:  ; loc_fffffff007d5da24
0xfffffff007d5da24:  3f 00 00 f1   cmp	x1, #0
0xfffffff007d5da28:  00 00 40 f9   ldr	x0, [x0]
0xfffffff007d5da2c:  cc f1 ff 54   b.gt	loc_fffffff007d5d864 ; в¤ґ -0x1c8
0xfffffff007d5da30:  e4 ff 9f 52   mov	w4, #0xffff
0xfffffff007d5da34:  80 c0 43 8a   and	x0, x4, x3, lsr #0x30
0xfffffff007d5da38:  81 80 43 8a   and	x1, x4, x3, lsr #0x20
0xfffffff007d5da3c:  82 40 43 8a   and	x2, x4, x3, lsr #0x10
0xfffffff007d5da40:  83 00 03 8a   and	x3, x4, x3
0xfffffff007d5da44:  00 00 01 0b   add	w0, w0, w1
0xfffffff007d5da48:  42 00 03 0b   add	w2, w2, w3
0xfffffff007d5da4c:  00 00 02 0b   add	w0, w0, w2
0xfffffff007d5da50:  81 40 40 0a   and	w1, w4, w0, lsr #0x10
0xfffffff007d5da54:  80 00 00 0a   and	w0, w4, w0
0xfffffff007d5da58:  00 00 01 0b   add	w0, w0, w1
0xfffffff007d5da5c:  81 40 40 0a   and	w1, w4, w0, lsr #0x10
0xfffffff007d5da60:  80 00 00 0a   and	w0, w4, w0
0xfffffff007d5da64:  00 00 01 0b   add	w0, w0, w1
0xfffffff007d5da68:  00 00 04 0a   and	w0, w0, w4
0xfffffff007d5da6c:  c0 03 5f d6   ret
0xfffffff007d5da70:  ; loc_fffffff007d5da70
0xfffffff007d5da70:  00 00 00 90   adrp	x0, 0xfffffff007d5d000
0xfffffff007d5da74:  00 10 2a 91   add	x0, x0, #0xa84
0xfffffff007d5da78:  b6 46 1c 94   bl	0xfffffff00846f550
0xfffffff007d5da7c:  00 00 80 92   mov	x0, #0xffffffffffffffff
0xfffffff007d5da80:  c0 03 5f d6   ret
0xfffffff007d5da84:  6f 73 5f 63   DCB	"os_cpu_in_cksum_mbuf: out of data\n"
0xfffffff007d5da88:  70 75 5f 69   ldpsw	x16, fp, [x11, #0xf8]
0xfffffff007d5da8c:  6e 5f 63 6b   DCB	"n_cksum_mbuf: out of data\n"
0xfffffff007d5da90:  73 75 6d 5f   sqshl	d19, d11, #0x2d
0xfffffff007d5da94:  6d 62 75 66   DCB	"mbuf: out of data\n"
0xfffffff007d5da98:  3a 20 6f 75   DCB	": out of data\n"
0xfffffff007d5da9c:  74 20 6f 66   DCB	"t of data\n"
0xfffffff007d5daa0:  20 64 61 74   DCB	" data\n"
0xfffffff007d5daa4:  61 0a 00 00   udf	#0xa61
0xfffffff007d5daa8:  1f 20 03 d5   nop
0xfffffff007d5daac:  1f 20 03 d5   nop
0xfffffff007d5dab0:  1f 20 03 d5   nop
0xfffffff007d5dab4:  1f 20 03 d5   nop
0xfffffff007d5dab8:  1f 20 03 d5   nop
0xfffffff007d5dabc:  1f 20 03 d5   nop

sub_fffffff007d5dac0:
0xfffffff007d5dac0:  07 00 80 d2   mov	x7, #0
0xfffffff007d5dac4:  05 00 80 d2   mov	x5, #0
0xfffffff007d5dac8:  a2 10 00 b4   cbz	x2, loc_fffffff007d5dcdc ; в¤µ 0x214
0xfffffff007d5dacc:  1f 00 40 f2   tst	x0, #0x1
0xfffffff007d5dad0:  00 01 00 54   b.eq	loc_fffffff007d5daf0 ; в¤µ 0x20
0xfffffff007d5dad4:  07 00 40 39   ldrb	w7, [x0]
0xfffffff007d5dad8:  00 04 00 91   add	x0, x0, #0x1
0xfffffff007d5dadc:  27 14 00 38   strb	w7, [x1], #0x1
0xfffffff007d5dae0:  e7 dc 78 d3   lsl	x7, x7, #0x8
0xfffffff007d5dae4:  42 04 00 d1   sub	x2, x2, #0x1
0xfffffff007d5dae8:  25 00 80 d2   mov	x5, #0x1
0xfffffff007d5daec:  82 0f 00 b4   cbz	x2, loc_fffffff007d5dcdc ; в¤µ 0x1f0
0xfffffff007d5daf0:  ; loc_fffffff007d5daf0
0xfffffff007d5daf0:  00 1c 20 6e   eor	v0.16b, v0.16b, v0.16b
0xfffffff007d5daf4:  21 1c 21 6e   eor	v1.16b, v1.16b, v1.16b
0xfffffff007d5daf8:  5f 00 02 f1   cmp	x2, #0x80
0xfffffff007d5dafc:  e0 1c 08 4e   mov	v0.d[0], x7
0xfffffff007d5db00:  4b 07 00 54   b.lt	loc_fffffff007d5dbe8 ; в¤µ 0xe8
0xfffffff007d5db04:  04 04 c8 3c   ldr	q4, [x0], #0x80
0xfffffff007d5db08:  42 1c 22 6e   eor	v2.16b, v2.16b, v2.16b
0xfffffff007d5db0c:  05 00 d9 3c   ldur	q5, [x0, #-0x70]
0xfffffff007d5db10:  63 1c 23 6e   eor	v3.16b, v3.16b, v3.16b
0xfffffff007d5db14:  06 00 da 3c   ldur	q6, [x0, #-0x60]
0xfffffff007d5db18:  07 00 db 3c   ldur	q7, [x0, #-0x50]
0xfffffff007d5db1c:  10 00 dc 3c   ldur	q16, [x0, #-0x40]
0xfffffff007d5db20:  11 00 dd 3c   ldur	q17, [x0, #-0x30]
0xfffffff007d5db24:  12 00 de 3c   ldur	q18, [x0, #-0x20]
0xfffffff007d5db28:  13 00 df 3c   ldur	q19, [x0, #-0x10]
0xfffffff007d5db2c:  42 00 04 f1   subs	x2, x2, #0x100
0xfffffff007d5db30:  6b 03 00 54   b.lt	loc_fffffff007d5db9c ; в¤µ 0x6c
0xfffffff007d5db34:  ; loc_fffffff007d5db34
0xfffffff007d5db34:  24 04 88 3c   str	q4, [x1], #0x80
0xfffffff007d5db38:  80 68 a0 6e   uadalp	v0.2d, v4.4s
0xfffffff007d5db3c:  25 00 99 3c   stur	q5, [x1, #-0x70]
0xfffffff007d5db40:  a1 68 a0 6e   uadalp	v1.2d, v5.4s
0xfffffff007d5db44:  04 04 c8 3c   ldr	q4, [x0], #0x80
0xfffffff007d5db48:  05 00 d9 3c   ldur	q5, [x0, #-0x70]
0xfffffff007d5db4c:  26 00 9a 3c   stur	q6, [x1, #-0x60]
0xfffffff007d5db50:  c2 68 a0 6e   uadalp	v2.2d, v6.4s
0xfffffff007d5db54:  27 00 9b 3c   stur	q7, [x1, #-0x50]
0xfffffff007d5db58:  e3 68 a0 6e   uadalp	v3.2d, v7.4s
0xfffffff007d5db5c:  06 00 da 3c   ldur	q6, [x0, #-0x60]
0xfffffff007d5db60:  07 00 db 3c   ldur	q7, [x0, #-0x50]
0xfffffff007d5db64:  30 00 9c 3c   stur	q16, [x1, #-0x40]
0xfffffff007d5db68:  00 6a a0 6e   uadalp	v0.2d, v16.4s
0xfffffff007d5db6c:  31 00 9d 3c   stur	q17, [x1, #-0x30]
0xfffffff007d5db70:  21 6a a0 6e   uadalp	v1.2d, v17.4s
0xfffffff007d5db74:  10 00 dc 3c   ldur	q16, [x0, #-0x40]
0xfffffff007d5db78:  11 00 dd 3c   ldur	q17, [x0, #-0x30]
0xfffffff007d5db7c:  32 00 9e 3c   stur	q18, [x1, #-0x20]
0xfffffff007d5db80:  42 6a a0 6e   uadalp	v2.2d, v18.4s
0xfffffff007d5db84:  33 00 9f 3c   stur	q19, [x1, #-0x10]
0xfffffff007d5db88:  63 6a a0 6e   uadalp	v3.2d, v19.4s
0xfffffff007d5db8c:  12 00 de 3c   ldur	q18, [x0, #-0x20]
0xfffffff007d5db90:  13 00 df 3c   ldur	q19, [x0, #-0x10]
0xfffffff007d5db94:  42 00 02 f1   subs	x2, x2, #0x80
0xfffffff007d5db98:  ea fc ff 54   b.ge	loc_fffffff007d5db34 ; в¤ґ -0x64
0xfffffff007d5db9c:  ; loc_fffffff007d5db9c
0xfffffff007d5db9c:  24 04 88 3c   str	q4, [x1], #0x80
0xfffffff007d5dba0:  80 68 a0 6e   uadalp	v0.2d, v4.4s
0xfffffff007d5dba4:  25 00 99 3c   stur	q5, [x1, #-0x70]
0xfffffff007d5dba8:  a1 68 a0 6e   uadalp	v1.2d, v5.4s
0xfffffff007d5dbac:  26 00 9a 3c   stur	q6, [x1, #-0x60]
0xfffffff007d5dbb0:  c2 68 a0 6e   uadalp	v2.2d, v6.4s
0xfffffff007d5dbb4:  27 00 9b 3c   stur	q7, [x1, #-0x50]
0xfffffff007d5dbb8:  e3 68 a0 6e   uadalp	v3.2d, v7.4s
0xfffffff007d5dbbc:  30 00 9c 3c   stur	q16, [x1, #-0x40]
0xfffffff007d5dbc0:  00 6a a0 6e   uadalp	v0.2d, v16.4s
0xfffffff007d5dbc4:  31 00 9d 3c   stur	q17, [x1, #-0x30]
0xfffffff007d5dbc8:  21 6a a0 6e   uadalp	v1.2d, v17.4s
0xfffffff007d5dbcc:  32 00 9e 3c   stur	q18, [x1, #-0x20]
0xfffffff007d5dbd0:  42 6a a0 6e   uadalp	v2.2d, v18.4s
0xfffffff007d5dbd4:  33 00 9f 3c   stur	q19, [x1, #-0x10]
0xfffffff007d5dbd8:  63 6a a0 6e   uadalp	v3.2d, v19.4s
0xfffffff007d5dbdc:  42 00 02 91   add	x2, x2, #0x80
0xfffffff007d5dbe0:  00 84 e2 4e   add	v0.2d, v0.2d, v2.2d
0xfffffff007d5dbe4:  21 84 e3 4e   add	v1.2d, v1.2d, v3.2d
0xfffffff007d5dbe8:  ; loc_fffffff007d5dbe8
0xfffffff007d5dbe8:  5f 00 01 f1   cmp	x2, #0x40
0xfffffff007d5dbec:  cb 01 00 54   b.lt	loc_fffffff007d5dc24 ; в¤µ 0x38
0xfffffff007d5dbf0:  02 04 c4 3c   ldr	q2, [x0], #0x40
0xfffffff007d5dbf4:  03 00 dd 3c   ldur	q3, [x0, #-0x30]
0xfffffff007d5dbf8:  22 04 84 3c   str	q2, [x1], #0x40
0xfffffff007d5dbfc:  40 68 a0 6e   uadalp	v0.2d, v2.4s
0xfffffff007d5dc00:  23 00 9d 3c   stur	q3, [x1, #-0x30]
0xfffffff007d5dc04:  61 68 a0 6e   uadalp	v1.2d, v3.4s
0xfffffff007d5dc08:  02 00 de 3c   ldur	q2, [x0, #-0x20]
0xfffffff007d5dc0c:  03 00 df 3c   ldur	q3, [x0, #-0x10]
0xfffffff007d5dc10:  22 00 9e 3c   stur	q2, [x1, #-0x20]
0xfffffff007d5dc14:  40 68 a0 6e   uadalp	v0.2d, v2.4s
0xfffffff007d5dc18:  23 00 9f 3c   stur	q3, [x1, #-0x10]
0xfffffff007d5dc1c:  61 68 a0 6e   uadalp	v1.2d, v3.4s
0xfffffff007d5dc20:  42 00 01 d1   sub	x2, x2, #0x40
0xfffffff007d5dc24:  ; loc_fffffff007d5dc24
0xfffffff007d5dc24:  5f 80 00 f1   cmp	x2, #0x20
0xfffffff007d5dc28:  0b 01 00 54   b.lt	loc_fffffff007d5dc48 ; в¤µ 0x20
0xfffffff007d5dc2c:  02 04 c2 3c   ldr	q2, [x0], #0x20
0xfffffff007d5dc30:  03 00 df 3c   ldur	q3, [x0, #-0x10]
0xfffffff007d5dc34:  22 04 82 3c   str	q2, [x1], #0x20
0xfffffff007d5dc38:  40 68 a0 6e   uadalp	v0.2d, v2.4s
0xfffffff007d5dc3c:  23 00 9f 3c   stur	q3, [x1, #-0x10]
0xfffffff007d5dc40:  61 68 a0 6e   uadalp	v1.2d, v3.4s
0xfffffff007d5dc44:  42 80 00 d1   sub	x2, x2, #0x20
0xfffffff007d5dc48:  ; loc_fffffff007d5dc48
0xfffffff007d5dc48:  00 84 e1 4e   add	v0.2d, v0.2d, v1.2d
0xfffffff007d5dc4c:  5f 40 00 f1   cmp	x2, #0x10
0xfffffff007d5dc50:  ab 00 00 54   b.lt	loc_fffffff007d5dc64 ; в¤µ 0x14
0xfffffff007d5dc54:  02 04 c1 3c   ldr	q2, [x0], #0x10
0xfffffff007d5dc58:  22 04 81 3c   str	q2, [x1], #0x10
0xfffffff007d5dc5c:  40 68 a0 6e   uadalp	v0.2d, v2.4s
0xfffffff007d5dc60:  42 40 00 d1   sub	x2, x2, #0x10
0xfffffff007d5dc64:  ; loc_fffffff007d5dc64
0xfffffff007d5dc64:  21 1c 21 6e   eor	v1.16b, v1.16b, v1.16b
0xfffffff007d5dc68:  42 1c 22 6e   eor	v2.16b, v2.16b, v2.16b
0xfffffff007d5dc6c:  63 1c 23 6e   eor	v3.16b, v3.16b, v3.16b
0xfffffff007d5dc70:  5f 00 7d f2   tst	x2, #0x8
0xfffffff007d5dc74:  60 00 00 54   b.eq	loc_fffffff007d5dc80 ; в¤µ 0xc
0xfffffff007d5dc78:  01 84 40 fc   ldr	d1, [x0], #0x8
0xfffffff007d5dc7c:  21 84 00 fc   str	d1, [x1], #0x8
0xfffffff007d5dc80:  ; loc_fffffff007d5dc80
0xfffffff007d5dc80:  5f 00 7e f2   tst	x2, #0x4
0xfffffff007d5dc84:  60 00 00 54   b.eq	loc_fffffff007d5dc90 ; в¤µ 0xc
0xfffffff007d5dc88:  02 44 40 bc   ldr	s2, [x0], #0x4
0xfffffff007d5dc8c:  22 44 00 bc   str	s2, [x1], #0x4
0xfffffff007d5dc90:  ; loc_fffffff007d5dc90
0xfffffff007d5dc90:  20 68 a0 6e   uadalp	v0.2d, v1.4s
0xfffffff007d5dc94:  21 1c 21 6e   eor	v1.16b, v1.16b, v1.16b
0xfffffff007d5dc98:  5f 00 7f f2   tst	x2, #0x2
0xfffffff007d5dc9c:  60 00 00 54   b.eq	loc_fffffff007d5dca8 ; в¤µ 0xc
0xfffffff007d5dca0:  03 24 40 7c   ldr	h3, [x0], #0x2
0xfffffff007d5dca4:  23 24 00 7c   str	h3, [x1], #0x2
0xfffffff007d5dca8:  ; loc_fffffff007d5dca8
0xfffffff007d5dca8:  5f 00 40 f2   tst	x2, #0x1
0xfffffff007d5dcac:  60 00 00 54   b.eq	loc_fffffff007d5dcb8 ; в¤µ 0xc
0xfffffff007d5dcb0:  01 14 40 3c   ldr	b1, [x0], #0x1
0xfffffff007d5dcb4:  21 14 00 3c   str	b1, [x1], #0x1
0xfffffff007d5dcb8:  ; loc_fffffff007d5dcb8
0xfffffff007d5dcb8:  62 68 a0 6e   uadalp	v2.2d, v3.4s
0xfffffff007d5dcbc:  20 68 a0 6e   uadalp	v0.2d, v1.4s
0xfffffff007d5dcc0:  40 68 a0 6e   uadalp	v0.2d, v2.4s
0xfffffff007d5dcc4:  00 b8 f1 5e   addp	d0, v0.2d
0xfffffff007d5dcc8:  07 00 66 9e   fmov	x7, d0
0xfffffff007d5dccc:  e6 7c 40 92   and	x6, x7, #0xffffffff

