
sub_fffffff00849f814:
0xfffffff00849f814:  7f 23 03 d5   pacibsp
0xfffffff00849f818:  ff 03 01 d1   sub	sp, sp, #0x40
0xfffffff00849f81c:  fd 7b 03 a9   stp	fp, lr, [sp, #0x30]
0xfffffff00849f820:  fd c3 00 91   add	fp, sp, #0x30
0xfffffff00849f824:  29 fc 83 52   mov	w9, #0x1fe1
0xfffffff00849f828:  48 5f ff f0   adrp	x8, 0xfffffff00708a000
0xfffffff00849f82c:  08 dd 34 91   add	x8, x8, #0xd37 ; "uipc_socket.c"
0xfffffff00849f830:  e8 a7 01 a9   stp	x8, x9, [sp, #0x18]
0xfffffff00849f834:  e1 8b 00 a9   stp	x1, x2, [sp, #0x8]
0xfffffff00849f838:  e0 03 00 f9   str	x0, [sp]
0xfffffff00849f83c:  60 5f ff 90   adrp	x0, 0xfffffff00708b000
0xfffffff00849f840:  00 0c 08 91   add	x0, x0, #0x203 ; "assertion failed: %s, file: %s, line: %d @%s:%d"
0xfffffff00849f844:  32 d3 ff 97   bl	0xfffffff00849450c

sub_fffffff00849f848:
0xfffffff00849f848:  7f 23 03 d5   pacibsp
0xfffffff00849f84c:  fd 7b bf a9   stp	fp, lr, [sp, #-0x10]!
0xfffffff00849f850:  fd 03 00 91   mov	fp, sp
0xfffffff00849f854:  80 a6 ff b0   adrp	x0, 0xfffffff007970000
0xfffffff00849f858:  00 c0 24 91   add	x0, x0, #0x930 ; data_fffffff007970930 (__DATA_CONST.__kalloc_type)
0xfffffff00849f85c:  01 00 80 52   mov	w1, #0
0xfffffff00849f860:  9d 1d e4 97   bl	0xfffffff007da6ed4
0xfffffff00849f864:  00 e4 00 6f   movi	v0.2d, #0
0xfffffff00849f868:  00 00 00 ad   stp	q0, q0, [x0]
0xfffffff00849f86c:  00 00 01 ad   stp	q0, q0, [x0, #0x20]
0xfffffff00849f870:  1f fc 04 a9   stp	xzr, xzr, [x0, #0x48]
0xfffffff00849f874:  10 ed ff 90   adrp	x16, 0xfffffff00823f000
0xfffffff00849f878:  10 c2 1d 91   add	x16, x16, #0x770
0xfffffff00849f87c:  11 7b 8e d2   mov	x17, #0x73d8
0xfffffff00849f880:  30 02 c1 da   pacia	x16, x17
0xfffffff00849f884:  10 fc 05 a9   stp	x16, xzr, [x0, #0x58]
0xfffffff00849f888:  1f 7c 07 a9   stp	xzr, xzr, [x0, #0x70]
0xfffffff00849f88c:  1f 34 00 f9   str	xzr, [x0, #0x68]
0xfffffff00849f890:  48 00 80 d2   mov	x8, #0x2
0xfffffff00849f894:  28 44 a0 f2   movk	x8, #0x221, lsl #0x10
0xfffffff00849f898:  28 00 c0 f2   movk	x8, #0x1, lsl #0x20
0xfffffff00849f89c:  08 20 00 f9   str	x8, [x0, #0x40]
0xfffffff00849f8a0:  28 ed 00 f0   adrp	x8, 0xfffffff00a246000
0xfffffff00849f8a4:  00 41 02 f9   str	x0, [x8, #0x480]
0xfffffff00849f8a8:  fd 7b c1 a8   ldp	fp, lr, [sp], #0x10
0xfffffff00849f8ac:  ff 0f 5f d6   retab

sub_fffffff00849f8b0:
0xfffffff00849f8b0:  5f 24 03 d5   bti	c
0xfffffff00849f8b4:  c0 03 5f d6   ret

sub_fffffff00849f8b8:
0xfffffff00849f8b8:  7f 23 03 d5   pacibsp
0xfffffff00849f8bc:  f4 4f be a9   stp	x20, x19, [sp, #-0x20]!
0xfffffff00849f8c0:  fd 7b 01 a9   stp	fp, lr, [sp, #0x10]
0xfffffff00849f8c4:  fd 43 00 91   add	fp, sp, #0x10
0xfffffff00849f8c8:  f3 03 00 aa   mov	x19, x0
0xfffffff00849f8cc:  00 04 40 f9   ldr	x0, [x0, #0x8]
0xfffffff00849f8d0:  01 00 80 52   mov	w1, #0
0xfffffff00849f8d4:  cb ae e7 97   bl	0xfffffff007e8b400
0xfffffff00849f8d8:  68 02 40 f9   ldr	x8, [x19]
0xfffffff00849f8dc:  00 01 00 f9   str	x0, [x8]
0xfffffff00849f8e0:  fd 7b 41 a9   ldp	fp, lr, [sp, #0x10]
0xfffffff00849f8e4:  f4 4f c2 a8   ldp	x20, x19, [sp], #0x20
0xfffffff00849f8e8:  ff 0f 5f d6   retab

sub_fffffff00849f8ec:
0xfffffff00849f8ec:  7f 23 03 d5   pacibsp
0xfffffff00849f8f0:  ff 83 02 d1   sub	sp, sp, #0xa0
0xfffffff00849f8f4:  fa 67 05 a9   stp	x26, x25, [sp, #0x50]
0xfffffff00849f8f8:  f8 5f 06 a9   stp	x24, x23, [sp, #0x60]
0xfffffff00849f8fc:  f6 57 07 a9   stp	x22, x21, [sp, #0x70]
0xfffffff00849f900:  f4 4f 08 a9   stp	x20, x19, [sp, #0x80]
0xfffffff00849f904:  fd 7b 09 a9   stp	fp, lr, [sp, #0x90]
0xfffffff00849f908:  fd 43 02 91   add	fp, sp, #0x90
0xfffffff00849f90c:  f3 03 00 aa   mov	x19, x0
0xfffffff00849f910:  56 ed 00 90   adrp	x22, 0xfffffff00a247000
0xfffffff00849f914:  d4 22 43 f9   ldr	x20, [x22, #0x640] ; data_fffffff00a247640 (__DATA.__bss)
0xfffffff00849f918:  b4 00 00 b4   cbz	x20, loc_fffffff00849f92c ; в¤µ 0x14
0xfffffff00849f91c:  e0 03 14 aa   mov	x0, x20
0xfffffff00849f920:  01 00 81 52   mov	w1, #0x800
0xfffffff00849f924:  87 b4 e2 97   bl	0xfffffff007d4cb40
0xfffffff00849f928:  0a 00 00 14   b	loc_fffffff00849f950 ; в¤µ 0x28
0xfffffff00849f92c:  ; loc_fffffff00849f92c
0xfffffff00849f92c:  80 a6 ff 90   adrp	x0, 0xfffffff00796f000
0xfffffff00849f930:  00 20 1a 91   add	x0, x0, #0x688 ; data_fffffff00796f688 (__DATA_CONST.__const)
0xfffffff00849f934:  01 00 81 52   mov	w1, #0x800
0xfffffff00849f938:  82 00 80 52   mov	w2, #0x4
0xfffffff00849f93c:  03 00 80 d2   mov	x3, #0
0xfffffff00849f940:  f0 1a e4 97   bl	0xfffffff007da6500
0xfffffff00849f944:  f4 03 00 aa   mov	x20, x0
0xfffffff00849f948:  c0 22 03 f9   str	x0, [x22, #0x640]
0xfffffff00849f94c:  c0 0b 00 b4   cbz	x0, loc_fffffff00849fac4 ; в¤µ 0x178
0xfffffff00849f950:  ; loc_fffffff00849f950
0xfffffff00849f950:  60 86 40 ad   ldp	q0, q1, [x19, #0x10]
0xfffffff00849f954:  68 1a 40 f9   ldr	x8, [x19, #0x30]
0xfffffff00849f958:  69 ea 40 b9   ldr	w9, [x19, #0xe8]
0xfffffff00849f95c:  e8 1f 00 f9   str	x8, [sp, #0x38]
0xfffffff00849f960:  e1 83 82 3c   stur	q1, [sp, #0x28]
0xfffffff00849f964:  e0 83 81 3c   stur	q0, [sp, #0x18]
0xfffffff00849f968:  88 5f ff b0   adrp	x8, 0xfffffff007090000
0xfffffff00849f96c:  08 f5 04 91   add	x8, x8, #0x13d
0xfffffff00849f970:  e9 a3 00 a9   stp	x9, x8, [sp, #0x8]
0xfffffff00849f974:  f3 03 00 f9   str	x19, [sp]
0xfffffff00849f978:  82 5f ff b0   adrp	x2, 0xfffffff007090000
0xfffffff00849f97c:  42 9c 02 91   add	x2, x2, #0xa7 ; "Region %p\n  | Mode         : 0x%b\n  | Memory       : [%llu in use [%llu wired]] / [%llu total]\n  | Transactions : [%llu segment allocs, %llu frees]\n\n"
0xfffffff00849f980:  15 00 81 52   mov	w21, #0x800
0xfffffff00849f984:  e0 03 14 aa   mov	x0, x20
0xfffffff00849f988:  01 00 81 52   mov	w1, #0x800
0xfffffff00849f98c:  f4 6c f5 97   bl	0xfffffff0081fad5c
0xfffffff00849f990:  1f fc 1f 71   cmp	w0, #0x7ff
0xfffffff00849f994:  8c 08 00 54   b.gt	loc_fffffff00849faa4 ; в¤µ 0x110
0xfffffff00849f998:  b7 02 00 4b   sub	w23, w21, w0
0xfffffff00849f99c:  94 c2 20 8b   add	x20, x20, w0, sxtw
0xfffffff00849f9a0:  68 ae 43 39   ldrb	w8, [x19, #0xeb]
0xfffffff00849f9a4:  88 04 30 36   tbz	w8, #0x6, loc_fffffff00849fa34 ; в¤µ 0x90
0xfffffff00849f9a8:  08 00 80 d2   mov	x8, #0
0xfffffff00849f9ac:  29 00 80 52   mov	w9, #0x1
0xfffffff00849f9b0:  98 5f ff b0   adrp	x24, 0xfffffff007090000
0xfffffff00849f9b4:  18 4f 0b 91   add	x24, x24, #0x2d3
0xfffffff00849f9b8:  95 5f ff b0   adrp	x21, 0xfffffff007090000
0xfffffff00849f9bc:  b5 ba 07 91   add	x21, x21, #0x1ee ; "Cache %p\n  | Mode         : 0x%b\n  | Memory       : [%llu in use] / [%llu total]\n  | Transactions : [%llu alloc failures]\n  |                [%llu slab creates, %llu destroys]\n  |                [%llu"...
0xfffffff00849f9c0:  ; loc_fffffff00849f9c0
0xfffffff00849f9c0:  f9 03 09 aa   mov	x25, x9
0xfffffff00849f9c4:  68 0e 08 8b   add	x8, x19, x8, lsl #0x3
0xfffffff00849f9c8:  08 99 40 f9   ldr	x8, [x8, #0x130]
0xfffffff00849f9cc:  e8 02 00 b4   cbz	x8, loc_fffffff00849fa28 ; в¤µ 0x5c
0xfffffff00849f9d0:  e1 03 17 2a   mov	w1, w23
0xfffffff00849f9d4:  09 61 05 91   add	x9, x8, #0x158
0xfffffff00849f9d8:  20 01 c0 3d   ldr	q0, [x9]
0xfffffff00849f9dc:  09 a9 40 f9   ldr	x9, [x8, #0x150]
0xfffffff00849f9e0:  0a 01 40 b9   ldr	w10, [x8]
0xfffffff00849f9e4:  0b 39 41 b9   ldr	w11, [x8, #0x138]
0xfffffff00849f9e8:  0c 3d 41 b9   ldr	w12, [x8, #0x13c]
0xfffffff00849f9ec:  0d 41 41 b9   ldr	w13, [x8, #0x140]
0xfffffff00849f9f0:  0e 45 41 b9   ldr	w14, [x8, #0x144]
0xfffffff00849f9f4:  ed 3b 04 a9   stp	x13, x14, [sp, #0x40]
0xfffffff00849f9f8:  eb 33 03 a9   stp	x11, x12, [sp, #0x30]
0xfffffff00849f9fc:  e9 17 00 f9   str	x9, [sp, #0x28]
0xfffffff00849fa00:  e0 83 81 3c   stur	q0, [sp, #0x18]
0xfffffff00849fa04:  ea e3 00 a9   stp	x10, x24, [sp, #0x8]
0xfffffff00849fa08:  e8 03 00 f9   str	x8, [sp]
0xfffffff00849fa0c:  e0 03 14 aa   mov	x0, x20
0xfffffff00849fa10:  e2 03 15 aa   mov	x2, x21
0xfffffff00849fa14:  d2 6c f5 97   bl	0xfffffff0081fad5c
0xfffffff00849fa18:  f7 02 00 4b   sub	w23, w23, w0
0xfffffff00849fa1c:  ff 06 00 71   cmp	w23, #0x1
0xfffffff00849fa20:  2b 04 00 54   b.lt	loc_fffffff00849faa4 ; в¤µ 0x84
0xfffffff00849fa24:  94 c2 20 8b   add	x20, x20, w0, sxtw
0xfffffff00849fa28:  ; loc_fffffff00849fa28
0xfffffff00849fa28:  09 00 80 52   mov	w9, #0
0xfffffff00849fa2c:  28 00 80 52   mov	w8, #0x1
0xfffffff00849fa30:  99 fc 07 37   tbnz	w25, #0, loc_fffffff00849f9c0 ; в¤ґ -0x70
0xfffffff00849fa34:  ; loc_fffffff00849fa34
0xfffffff00849fa34:  e1 7e 40 93   sxtw	x1, w23
0xfffffff00849fa38:  c8 eb 00 90   adrp	x8, 0xfffffff00a217000
0xfffffff00849fa3c:  c9 eb 00 90   adrp	x9, 0xfffffff00a217000
0xfffffff00849fa40:  ca eb 00 90   adrp	x10, 0xfffffff00a217000
0xfffffff00849fa44:  cb eb 00 90   adrp	x11, 0xfffffff00a217000
0xfffffff00849fa48:  cc eb 00 90   adrp	x12, 0xfffffff00a217000
0xfffffff00849fa4c:  cd eb 00 90   adrp	x13, 0xfffffff00a217000
0xfffffff00849fa50:  ce eb 00 90   adrp	x14, 0xfffffff00a217000
0xfffffff00849fa54:  08 05 48 b9   ldr	w8, [x8, #0x804] ; data_fffffff00a217000 (__DATA.__common)
0xfffffff00849fa58:  29 09 48 b9   ldr	w9, [x9, #0x808]
0xfffffff00849fa5c:  4a 0d 48 b9   ldr	w10, [x10, #0x80c]
0xfffffff00849fa60:  6b 11 48 b9   ldr	w11, [x11, #0x810]
0xfffffff00849fa64:  cf eb 00 90   adrp	x15, 0xfffffff00a217000
0xfffffff00849fa68:  d0 eb 00 90   adrp	x16, 0xfffffff00a217000
0xfffffff00849fa6c:  8c 15 48 b9   ldr	w12, [x12, #0x814] ; data_fffffff00a217000 (__DATA.__common)
0xfffffff00849fa70:  ad 19 48 b9   ldr	w13, [x13, #0x818]
0xfffffff00849fa74:  ce 1d 48 b9   ldr	w14, [x14, #0x81c]
0xfffffff00849fa78:  ef 21 48 b9   ldr	w15, [x15, #0x820]
0xfffffff00849fa7c:  10 2a 48 b9   ldr	w16, [x16, #0x828]
0xfffffff00849fa80:  ef c3 03 a9   stp	x15, x16, [sp, #0x38]
0xfffffff00849fa84:  ed bb 02 a9   stp	x13, x14, [sp, #0x28]
0xfffffff00849fa88:  eb b3 01 a9   stp	x11, x12, [sp, #0x18]
0xfffffff00849fa8c:  82 5f ff b0   adrp	x2, 0xfffffff007090000
0xfffffff00849fa90:  42 6c 0c 91   add	x2, x2, #0x31b ; "VM Pages\n  | Free         : %u [%u speculative]\n  | Active       : %u\n  | Inactive     : %u\n  | Wired        : %u [%u throttled, %u lopage_free]\n  | Purgeable    : %u [%u purged]\n"
0xfffffff00849fa94:  e9 ab 00 a9   stp	x9, x10, [sp, #0x8]
0xfffffff00849fa98:  e8 03 00 f9   str	x8, [sp]
0xfffffff00849fa9c:  e0 03 14 aa   mov	x0, x20
0xfffffff00849faa0:  af 6c f5 97   bl	0xfffffff0081fad5c
0xfffffff00849faa4:  ; loc_fffffff00849faa4
0xfffffff00849faa4:  c0 22 43 f9   ldr	x0, [x22, #0x640]
0xfffffff00849faa8:  fd 7b 49 a9   ldp	fp, lr, [sp, #0x90]
0xfffffff00849faac:  f4 4f 48 a9   ldp	x20, x19, [sp, #0x80]
0xfffffff00849fab0:  f6 57 47 a9   ldp	x22, x21, [sp, #0x70]
0xfffffff00849fab4:  f8 5f 46 a9   ldp	x24, x23, [sp, #0x60]
0xfffffff00849fab8:  fa 67 45 a9   ldp	x26, x25, [sp, #0x50]
0xfffffff00849fabc:  ff 83 02 91   add	sp, sp, #0xa0
0xfffffff00849fac0:  ff 0f 5f d6   retab
0xfffffff00849fac4:  ; loc_fffffff00849fac4
0xfffffff00849fac4:  80 5f ff b0   adrp	x0, 0xfffffff007090000
0xfffffff00849fac8:  00 38 01 91   add	x0, x0, #0x4e ; "skmem_dump_buf != NULL"
0xfffffff00849facc:  81 5f ff b0   adrp	x1, 0xfffffff007090000
0xfffffff00849fad0:  21 94 01 91   add	x1, x1, #0x65 ; "/Library/Caches/com.apple.xbs/Sources/xnu/bsd/skywalk/mem/skmem.c"
0xfffffff00849fad4:  02 4e 80 52   mov	w2, #0x270
0xfffffff00849fad8:  4f ff ff 97   bl	0xfffffff00849f814

sub_fffffff00849fadc:
0xfffffff00849fadc:  7f 23 03 d5   pacibsp
0xfffffff00849fae0:  ff 83 01 d1   sub	sp, sp, #0x60
0xfffffff00849fae4:  f6 57 03 a9   stp	x22, x21, [sp, #0x30]
0xfffffff00849fae8:  f4 4f 04 a9   stp	x20, x19, [sp, #0x40]
0xfffffff00849faec:  fd 7b 05 a9   stp	fp, lr, [sp, #0x50]
0xfffffff00849faf0:  fd 43 01 91   add	fp, sp, #0x50
0xfffffff00849faf4:  f3 03 01 aa   mov	x19, x1
0xfffffff00849faf8:  f6 03 00 aa   mov	x22, x0
0xfffffff00849fafc:  08 00 80 d2   mov	x8, #0
0xfffffff00849fb00:  14 00 02 91   add	x20, x0, #0x80
0xfffffff00849fb04:  95 d0 38 d5   mrs	x21, tpidr_el1
0xfffffff00849fb08:  a9 1a 44 b9   ldr	w9, [x21, #0x418]
0xfffffff00849fb0c:  0a 20 02 91   add	x10, x0, #0x88
0xfffffff00849fb10:  49 7d e8 c8   casa	x8, x9, [x10]
0xfffffff00849fb14:  1f 01 00 f1   cmp	x8, #0
0xfffffff00849fb18:  c1 03 00 54   b.ne	loc_fffffff00849fb90 ; в¤µ 0x78
0xfffffff00849fb1c:  53 04 00 b4   cbz	x19, loc_fffffff00849fba4 ; в¤µ 0x88
0xfffffff00849fb20:  ; loc_fffffff00849fb20
0xfffffff00849fb20:  ca 22 4d a9   ldp	x10, x8, [x22, #0xd0]
0xfffffff00849fb24:  c9 66 40 f9   ldr	x9, [x22, #0xc8]
0xfffffff00849fb28:  69 26 c9 9a   lsr	x9, x19, x9
0xfffffff00849fb2c:  29 01 0a 8a   and	x9, x9, x10
0xfffffff00849fb30:  00 0d 09 8b   add	x0, x8, x9, lsl #0x3
0xfffffff00849fb34:  ; loc_fffffff00849fb34
0xfffffff00849fb34:  00 00 40 f9   ldr	x0, [x0]
0xfffffff00849fb38:  40 01 00 b4   cbz	x0, loc_fffffff00849fb60 ; в¤µ 0x28
0xfffffff00849fb3c:  08 04 40 f9   ldr	x8, [x0, #0x8]
0xfffffff00849fb40:  1f 01 13 eb   cmp	x8, x19
0xfffffff00849fb44:  81 ff ff 54   b.ne	loc_fffffff00849fb34 ; в¤ґ -0x10
0xfffffff00849fb48:  2d 00 00 94   bl	0xfffffff00849fbfc
0xfffffff00849fb4c:  c8 02 40 39   ldrb	w8, [x22]
0xfffffff00849fb50:  a8 02 18 36   tbz	w8, #0x3, loc_fffffff00849fba4 ; в¤µ 0x54
0xfffffff00849fb54:  73 02 40 f9   ldr	x19, [x19]
0xfffffff00849fb58:  53 fe ff b5   cbnz	x19, loc_fffffff00849fb20 ; в¤ґ -0x38
0xfffffff00849fb5c:  12 00 00 14   b	loc_fffffff00849fba4 ; в¤µ 0x48
0xfffffff00849fb60:  ; loc_fffffff00849fb60
0xfffffff00849fb60:  c8 e2 05 91   add	x8, x22, #0x178
0xfffffff00849fb64:  ab 79 81 52   mov	w11, #0xbcd
0xfffffff00849fb68:  89 5f ff b0   adrp	x9, 0xfffffff007090000
0xfffffff00849fb6c:  29 61 24 91   add	x9, x9, #0x918 ; "skmem_cache.c"
0xfffffff00849fb70:  8a 5f ff b0   adrp	x10, 0xfffffff007090000
0xfffffff00849fb74:  4a c9 38 91   add	x10, x10, #0xe32 ; "skmem_audit_buf"
0xfffffff00849fb78:  e9 af 01 a9   stp	x9, x11, [sp, #0x18]
0xfffffff00849fb7c:  e8 cf 00 a9   stp	x8, x19, [sp, #0x8]
0xfffffff00849fb80:  ea 03 00 f9   str	x10, [sp]
0xfffffff00849fb84:  80 5f ff b0   adrp	x0, 0xfffffff007090000
0xfffffff00849fb88:  00 20 38 91   add	x0, x0, #0xe08 ; "%s: %s failed to get bufctl for %p @%s:%d"
0xfffffff00849fb8c:  60 d2 ff 97   bl	0xfffffff00849450c
0xfffffff00849fb90:  ; loc_fffffff00849fb90
0xfffffff00849fb90:  e0 03 14 aa   mov	x0, x20
0xfffffff00849fb94:  e1 03 15 aa   mov	x1, x21
0xfffffff00849fb98:  02 00 80 52   mov	w2, #0
0xfffffff00849fb9c:  d7 2f e4 97   bl	0xfffffff007dabaf8
0xfffffff00849fba0:  13 fc ff b5   cbnz	x19, loc_fffffff00849fb20 ; в¤ґ -0x80
0xfffffff00849fba4:  ; loc_fffffff00849fba4
0xfffffff00849fba4:  a8 1a 44 b9   ldr	w8, [x21, #0x418]
0xfffffff00849fba8:  c9 22 02 91   add	x9, x22, #0x88
0xfffffff00849fbac:  e2 03 08 aa   mov	x2, x8
0xfffffff00849fbb0:  3f fd a2 88   casl	w2, wzr, [x9]
0xfffffff00849fbb4:  5f 00 08 6b   cmp	w2, w8
0xfffffff00849fbb8:  c1 00 00 54   b.ne	loc_fffffff00849fbd0 ; в¤µ 0x18
0xfffffff00849fbbc:  fd 7b 45 a9   ldp	fp, lr, [sp, #0x50]
0xfffffff00849fbc0:  f4 4f 44 a9   ldp	x20, x19, [sp, #0x40]
0xfffffff00849fbc4:  f6 57 43 a9   ldp	x22, x21, [sp, #0x30]
0xfffffff00849fbc8:  ff 83 01 91   add	sp, sp, #0x60
0xfffffff00849fbcc:  ff 0f 5f d6   retab
0xfffffff00849fbd0:  ; loc_fffffff00849fbd0
0xfffffff00849fbd0:  e0 03 14 aa   mov	x0, x20
0xfffffff00849fbd4:  e1 03 15 aa   mov	x1, x21
0xfffffff00849fbd8:  fd 7b 45 a9   ldp	fp, lr, [sp, #0x50]
0xfffffff00849fbdc:  f4 4f 44 a9   ldp	x20, x19, [sp, #0x40]
0xfffffff00849fbe0:  f6 57 43 a9   ldp	x22, x21, [sp, #0x30]
0xfffffff00849fbe4:  ff 83 01 91   add	sp, sp, #0x60
0xfffffff00849fbe8:  ff 23 03 d5   autibsp
0xfffffff00849fbec:  d0 07 1e ca   eor	x16, lr, lr, lsl #0x1
0xfffffff00849fbf0:  50 00 f0 b6   tbz	x16, #0x3e, loc_fffffff00849fbf8 ; в¤µ 0x8
0xfffffff00849fbf4:  20 8e 38 d4   brk	#0xc471
0xfffffff00849fbf8:  ; loc_fffffff00849fbf8
0xfffffff00849fbf8:  db 32 e4 17   b	0xfffffff007dac764

sub_fffffff00849fbfc:
0xfffffff00849fbfc:  7f 23 03 d5   pacibsp
0xfffffff00849fc00:  ff c3 00 d1   sub	sp, sp, #0x30
0xfffffff00849fc04:  f4 4f 01 a9   stp	x20, x19, [sp, #0x10]
0xfffffff00849fc08:  fd 7b 02 a9   stp	fp, lr, [sp, #0x20]
0xfffffff00849fc0c:  fd 83 00 91   add	fp, sp, #0x20
0xfffffff00849fc10:  f3 03 00 aa   mov	x19, x0
0xfffffff00849fc14:  ff 7f 00 a9   stp	xzr, xzr, [sp]
0xfffffff00849fc18:  e0 03 00 91   mov	x0, sp
0xfffffff00849fc1c:  4c 4e f5 97   bl	0xfffffff0081f354c
0xfffffff00849fc20:  88 d0 38 d5   mrs	x8, tpidr_el1
0xfffffff00849fc24:  68 1a 00 f9   str	x8, [x19, #0x30]
0xfffffff00849fc28:  e8 03 40 b9   ldr	w8, [sp]
0xfffffff00849fc2c:  e9 0b 80 b9   ldrsw	x9, [sp, #0x8]
0xfffffff00849fc30:  6a ba 89 52   mov	w10, #0x4dd3
0xfffffff00849fc34:  4a 0c a2 72   movk	w10, #0x1062, lsl #0x10
0xfffffff00849fc38:  29 7d 0a 9b   mul	x9, x9, x10
0xfffffff00849fc3c:  2a fd 7f d3   lsr	x10, x9, #0x3f
0xfffffff00849fc40:  29 fd 66 93   asr	x9, x9, #0x26
0xfffffff00849fc44:  29 01 0a 0b   add	w9, w9, w10
0xfffffff00849fc48:  0a 7d 80 52   mov	w10, #0x3e8
0xfffffff00849fc4c:  08 25 0a 1b   madd	w8, w8, w10, w9
0xfffffff00849fc50:  68 3a 00 b9   str	w8, [x19, #0x38]
0xfffffff00849fc54:  60 02 01 91   add	x0, x19, #0x40
0xfffffff00849fc58:  01 02 80 52   mov	w1, #0x10
0xfffffff00849fc5c:  a5 0e f9 97   bl	0xfffffff0082e36f0
0xfffffff00849fc60:  60 3e 00 b9   str	w0, [x19, #0x3c]
0xfffffff00849fc64:  fd 7b 42 a9   ldp	fp, lr, [sp, #0x20]
0xfffffff00849fc68:  f4 4f 41 a9   ldp	x20, x19, [sp, #0x10]
0xfffffff00849fc6c:  ff c3 00 91   add	sp, sp, #0x30
0xfffffff00849fc70:  ff 0f 5f d6   retab

sub_fffffff00849fc74:
0xfffffff00849fc74:  7f 23 03 d5   pacibsp
0xfffffff00849fc78:  ff 03 01 d1   sub	sp, sp, #0x40
0xfffffff00849fc7c:  f4 4f 02 a9   stp	x20, x19, [sp, #0x20]
0xfffffff00849fc80:  fd 7b 03 a9   stp	fp, lr, [sp, #0x30]
0xfffffff00849fc84:  fd c3 00 91   add	fp, sp, #0x30
0xfffffff00849fc88:  ff 7f 01 a9   stp	xzr, xzr, [sp, #0x10]
0xfffffff00849fc8c:  ff 0f 00 b9   str	wzr, [sp, #0xc]
0xfffffff00849fc90:  a1 5f ff f0   adrp	x1, 0xfffffff007096000
0xfffffff00849fc94:  21 74 23 91   add	x1, x1, #0x8dd ; "/product"
0xfffffff00849fc98:  e2 63 00 91   add	x2, sp, #0x18
0xfffffff00849fc9c:  00 00 80 d2   mov	x0, #0
0xfffffff00849fca0:  88 32 ff 97   bl	0xfffffff00846c6c0
0xfffffff00849fca4:  1f 04 00 71   cmp	w0, #0x1
0xfffffff00849fca8:  41 05 00 54   b.ne	loc_fffffff00849fd50 ; в¤µ 0xa8
0xfffffff00849fcac:  e0 0f 40 f9   ldr	x0, [sp, #0x18]
0xfffffff00849fcb0:  68 a6 ff f0   adrp	x8, 0xfffffff00796e000
0xfffffff00849fcb4:  04 05 46 f9   ldr	x4, [x8, #0xc08] ; data_fffffff00796ec08 (__DATA_CONST.__const)
0xfffffff00849fcb8:  68 a6 ff f0   adrp	x8, 0xfffffff00796e000
0xfffffff00849fcbc:  08 0d 46 f9   ldr	x8, [x8, #0xc18] ; data_fffffff00796ec18 (__DATA_CONST.__const)
0xfffffff00849fcc0:  05 01 04 cb   sub	x5, x8, x4

