FILEOFF: 0x011ee2ec VM: 0xfffffff0081f22ec SCORE: 93 BL: 2 INSTRS: 22
; region fileoff=0x11ee2ec size=0x2000 base_vm=0xfffffff0081f22ec
; read file window:
; start_fileoff=0x11ed2ec end_fileoff=0x11f02ec prologue_rel=3444
; hexdump around target:
011ee2ac  09 12 80 52 09 01 a0 72 1f 01 09 6b 81 00 00 54   ...R...r...k...T
011ee2bc  00 00 80 52 08 7d 13 53 28 00 00 b9 c0 03 5f d6   ...R.}.S(....._.
011ee2cc  5f 24 03 d5 60 00 00 b4 08 3c 40 79 68 00 08 37   _$..`....<@yh..7
011ee2dc  00 00 80 52 c0 03 5f d6 45 c4 00 14 7f 23 03 d5   ...R.._.E....#..
011ee2ec  fd 7b bf a9 fd 03 00 91 e0 02 00 b4 e8 03 00 aa   .{..............
011ee2fc  c0 02 80 52 41 02 00 b4 09 3d 40 79 09 02 08 36   ...RA....=@y...6
011ee30c  00 00 80 52 3f 00 00 b9 08 75 40 b9 09 28 80 52   ...R?....u@..(.R
011ee31c  3f 01 28 6a e9 17 9f 1a 2a 75 1e 53 0b 01 80 52   ?.(j....*u.S...R
; disassembly:
0xfffffff0081f2060: add	x29, sp, #0x10	; fd430091
0xfffffff0081f2064: mov	x8, x0	; e80300aa
0xfffffff0081f2068: mov	w0, #0x16	; c0028052
0xfffffff0081f206c: cmp	w8, #3	; 1f0d0071
0xfffffff0081f2070: b.hi	#0xfffffff0081f2094	; 28010054
0xfffffff0081f2074: mov	x19, x1	; f30301aa
0xfffffff0081f2078: cbz	x1, #0xfffffff0081f2094	; e10000b4
0xfffffff0081f207c: lsl	w0, w8, #7	; 00611953
0xfffffff0081f2080: bl	#0xfffffff0082231f8	; 5ec40094
--- BL -> #0xfffffff0082231f8 ---
0xfffffff0081f2084: mov	x8, x0	; e80300aa
0xfffffff0081f2088: mov	w0, #0	; 00008052
0xfffffff0081f208c: ubfx	w8, w8, #0x13, #5	; 085d1353
0xfffffff0081f2090: str	w8, [x19]	; 680200b9
0xfffffff0081f2094: ldp	x29, x30, [sp, #0x10]	; fd7b41a9
--- LDP x29,x30 (possible epilogue/prologue) ---
0xfffffff0081f2098: ldp	x20, x19, [sp], #0x20	; f44fc2a8
0xfffffff0081f209c: retab		; ff0f5fd6
0xfffffff0081f20a0: bti	c	; 5f2403d5
0xfffffff0081f20a4: cbz	x0, #0xfffffff0081f20b0	; 600000b4
0xfffffff0081f20a8: ldrh	w8, [x0, #0x1e]	; 083c4079
0xfffffff0081f20ac: tbnz	w8, #1, #0xfffffff0081f20b8	; 68000837
0xfffffff0081f20b0: mov	w0, #0	; 00008052
0xfffffff0081f20b4: ret		; c0035fd6
--- RET (end of function) ---
================================================================================
FILEOFF: 0x01980bf8 VM: 0xfffffff008984bf8 SCORE: 90 BL: 4 INSTRS: 20
; region fileoff=0x1980bf8 size=0x2000 base_vm=0xfffffff008984bf8
; read file window:
; start_fileoff=0x197fbf8 end_fileoff=0x1982bf8 prologue_rel=4012
; hexdump around target:
01980bb8  f1 03 08 aa f1 b4 f3 f2 31 09 3f d7 60 00 00 36   ........1.?.`..6
01980bc8  20 00 80 52 04 00 00 14 68 a2 40 39 1f 01 00 71    ..R....h.@9...q
01980bd8  e0 07 9f 1a fd 7b 41 a9 f4 4f c2 a8 ff 0f 5f d6   .....{A..O...._.
01980be8  5f 24 03 d5 a0 01 80 52 c0 03 5f d6 7f 23 03 d5   _$.....R.._..#..
01980bf8  fd 7b bf a9 fd 03 00 91 3f 98 00 71 28 12 00 54   .{......?..q(..T
01980c08  e8 03 00 aa 80 89 80 52 00 08 a0 72 f0 03 01 2a   .......R...r...*
01980c18  1f 9a 00 f1 10 92 9f 9a 11 00 00 90 31 32 39 91   ............129.
01980c28  30 7a b0 b8 11 00 00 10 30 02 10 8b 00 02 1f d6   0z......0.......
; disassembly:
0xfffffff008984ba4: add	x29, sp, #0x10	; fd430091
0xfffffff008984ba8: mov	x19, x0	; f30300aa
0xfffffff008984bac: adrp	x8, #0xfffffff007a35000	; 8885ffb0
0xfffffff008984bb0: add	x8, x8, #0x248	; 08210991
0xfffffff008984bb4: ldr	x9, [x8, #0x50]!	; 090d45f8
0xfffffff008984bb8: mov	x17, x8	; f10308aa
0xfffffff008984bbc: movk	x17, #0x9da7, lsl #48	; f1b4f3f2
0xfffffff008984bc0: blraa	x9, x17	; 31093fd7
--- BL -> x9, x17 ---
0xfffffff008984bc4: tbz	w0, #0, #0xfffffff008984bd0	; 60000036
0xfffffff008984bc8: mov	w0, #1	; 20008052
0xfffffff008984bcc: b	#0xfffffff008984bdc	; 04000014
0xfffffff008984bd0: ldrb	w8, [x19, #0x28]	; 68a24039
0xfffffff008984bd4: cmp	w8, #0	; 1f010071
0xfffffff008984bd8: cset	w0, ne	; e0079f1a
0xfffffff008984bdc: ldp	x29, x30, [sp, #0x10]	; fd7b41a9
--- LDP x29,x30 (possible epilogue/prologue) ---
0xfffffff008984be0: ldp	x20, x19, [sp], #0x20	; f44fc2a8
0xfffffff008984be4: retab		; ff0f5fd6
0xfffffff008984be8: bti	c	; 5f2403d5
0xfffffff008984bec: mov	w0, #0xd	; a0018052
0xfffffff008984bf0: ret		; c0035fd6
--- RET (end of function) ---
================================================================================
FILEOFF: 0x01ac99d4 VM: 0xfffffff008acd9d4 SCORE: 87 BL: 0 INSTRS: 13
; region fileoff=0x1ac99d4 size=0x2000 base_vm=0xfffffff008acd9d4
; read file window:
; start_fileoff=0x1ac89d4 end_fileoff=0x1acb9d4 prologue_rel=4032
; hexdump around target:
01ac9994  fd 7b bf a9 fd 03 00 91 2e 01 00 94 e0 03 00 2a   .{.............*
01ac99a4  fd 7b c1 a8 ff 0f 5f d6 5f 24 03 d5 08 00 40 b9   .{...._._$....@.
01ac99b4  08 6d 04 12 08 51 53 51 1f 69 09 71 e0 17 9f 1a   .m...QSQ.i.q....
01ac99c4  c0 03 5f d6 00 00 00 00 00 00 00 00 7f 23 03 d5   .._..........#..
01ac99d4  fd 7b bf a9 fd 03 00 91 f3 0f 1f f8 0c 00 00 90   .{..............
01ac99e4  8c c1 2b 91 08 3c 02 0e 09 3c 06 0e 0a 3c 0a 0e   ..+..<...<...<..
01ac99f4  0b 3c 0e 0e f3 03 05 aa 65 00 40 f9 66 08 40 b9   .<......e.@.f.@.
01ac9a04  87 00 40 f9 28 78 68 b8 29 78 69 b8 2a 78 6a b8   ..@.(xh.)xi.*xj.
; disassembly:
0xfffffff008acd994: stp	x29, x30, [sp, #-0x10]!	; fd7bbfa9
0xfffffff008acd998: mov	x29, sp	; fd030091
0xfffffff008acd99c: bl	#0xfffffff008acde54	; 2e010094
--- BL -> #0xfffffff008acde54 ---
0xfffffff008acd9a0: mov	w0, w0	; e003002a
0xfffffff008acd9a4: ldp	x29, x30, [sp], #0x10	; fd7bc1a8
--- LDP x29,x30 (possible epilogue/prologue) ---
0xfffffff008acd9a8: retab		; ff0f5fd6
0xfffffff008acd9ac: bti	c	; 5f2403d5
0xfffffff008acd9b0: ldr	w8, [x0]	; 080040b9
0xfffffff008acd9b4: and	w8, w8, #0xf0ffffff	; 086d0412
0xfffffff008acd9b8: sub	w8, w8, #0x4d4, lsl #12	; 08515351
0xfffffff008acd9bc: cmp	w8, #0x25a	; 1f690971
0xfffffff008acd9c0: cset	w0, eq	; e0179f1a
0xfffffff008acd9c4: ret		; c0035fd6
--- RET (end of function) ---
================================================================================
FILEOFF: 0x00d59604 VM: 0xfffffff007d5d604 SCORE: 85 BL: 0 INSTRS: 25
; region fileoff=0xd59604 size=0x2000 base_vm=0xfffffff007d5d604
; read file window:
; start_fileoff=0xd58604 end_fileoff=0xd5b604 prologue_rel=3948
; hexdump around target:
00d595c4  fd 7b c1 a8 ff 0f 5f d6 00 00 80 d2 c0 03 5f d6   .{...._......._.
00d595d4  21 1c 21 6e 00 34 21 6e 00 1c a2 4e 01 a8 31 6e   !.!n.4!n...N..1n
00d595e4  23 00 26 1e 40 00 00 cb 3f 00 03 eb 21 30 83 9a   #.&.@...?...!0..
00d595f4  00 00 01 8b fd 7b c1 a8 ff 0f 5f d6 7f 23 03 d5   .....{...._..#..
00d59604  fd 7b bf a9 fd 03 00 91 01 ec 7c 92 20 00 c0 3d   .{........|. ..=
00d59614  63 f9 ff 10 62 04 c1 3c 02 0c 40 92 63 00 02 cb   c...b..<..@.c...
00d59624  61 00 c0 3d 00 1c a1 4e 02 00 00 14 20 0c c1 3c   a..=...N.... ..<
00d59634  01 a8 31 6e 22 00 26 1e a2 ff ff 35 21 1c 21 6e   ..1n".&....5!.!n
; disassembly:
0xfffffff007d5d570: stp	x29, x30, [sp, #-0x10]!	; fd7bbfa9
0xfffffff007d5d574: mov	x29, sp	; fd030091
0xfffffff007d5d578: and	x2, x0, #0xfffffffffffffff0	; 02ec7c92
0xfffffff007d5d57c: ldr	q0, [x2]	; 4000c03d
0xfffffff007d5d580: adr	x3, #0xfffffff007d5d540	; 03feff10
0xfffffff007d5d584: ldr	q2, [x3], #0x10	; 6204c13c
0xfffffff007d5d588: and	x4, x0, #0xf	; 040c4092
0xfffffff007d5d58c: sub	x3, x3, x4	; 630004cb
0xfffffff007d5d590: ldr	q1, [x3]	; 6100c03d
0xfffffff007d5d594: orr	v0.16b, v0.16b, v1.16b	; 001ca14e
0xfffffff007d5d598: add	x1, x1, x4	; 2100048b
0xfffffff007d5d59c: b	#0xfffffff007d5d5a4	; 02000014
0xfffffff007d5d5a0: ldr	q0, [x2, #0x10]!	; 400cc13c
0xfffffff007d5d5a4: uminv	b1, v0.16b	; 01a8316e
0xfffffff007d5d5a8: fmov	w3, s1	; 2300261e
0xfffffff007d5d5ac: cbz	w3, #0xfffffff007d5d5d4	; 43010034
0xfffffff007d5d5b0: subs	x1, x1, #0x10	; 214000f1
0xfffffff007d5d5b4: b.hi	#0xfffffff007d5d5a0	; 68ffff54
0xfffffff007d5d5b8: sub	x0, x2, x0	; 400000cb
0xfffffff007d5d5bc: add	x1, x1, #0x10	; 21400091
0xfffffff007d5d5c0: add	x0, x0, x1	; 0000018b
0xfffffff007d5d5c4: ldp	x29, x30, [sp], #0x10	; fd7bc1a8
--- LDP x29,x30 (possible epilogue/prologue) ---
0xfffffff007d5d5c8: retab		; ff0f5fd6
0xfffffff007d5d5cc: mov	x0, #0	; 000080d2
0xfffffff007d5d5d0: ret		; c0035fd6
--- RET (end of function) ---
================================================================================
FILEOFF: 0x016f56bc VM: 0xfffffff0086f96bc SCORE: 85 BL: 3 INSTRS: 30
; region fileoff=0x16f56bc size=0x2000 base_vm=0xfffffff0086f96bc
; read file window:
; start_fileoff=0x16f46bc end_fileoff=0x16f76bc prologue_rel=4048
; hexdump around target:
016f567c  f4 4f 41 a9 f6 57 c3 a8 ff 0f 5f d6 7f 23 03 d5   .OA..W...._..#..
016f568c  fd 7b bf a9 fd 03 00 91 5f 04 00 71 61 00 00 54   .{......_..qa..T
016f569c  08 3c 4c b9 68 00 00 34 00 7c 45 f9 11 74 02 94   .<L.h..4.|E..t..
016f56ac  00 00 80 52 fd 7b c1 a8 ff 0f 5f d6 7f 23 03 d5   ...R.{...._..#..
016f56bc  fd 7b bf a9 fd 03 00 91 00 7c 45 f9 45 74 02 94   .{.......|E.Et..
016f56cc  00 00 80 52 fd 7b c1 a8 ff 0f 5f d6 5f 24 03 d5   ...R.{...._._$..
016f56dc  3f 00 02 71 2c 01 00 54 08 60 00 91 09 80 10 91   ?..q,..T.`......
016f56ec  5f 04 00 71 08 01 89 9a 08 d9 61 f8 1f 01 00 f1   _..q......a.....
; disassembly:
0xfffffff0086f968c: stp	x29, x30, [sp, #-0x10]!	; fd7bbfa9
0xfffffff0086f9690: mov	x29, sp	; fd030091
0xfffffff0086f9694: cmp	w2, #1	; 5f040071
0xfffffff0086f9698: b.ne	#0xfffffff0086f96a4	; 61000054
0xfffffff0086f969c: ldr	w8, [x0, #0xc3c]	; 083c4cb9
0xfffffff0086f96a0: cbz	w8, #0xfffffff0086f96ac	; 68000034
0xfffffff0086f96a4: ldr	x0, [x0, #0xaf8]	; 007c45f9
0xfffffff0086f96a8: bl	#0xfffffff0087966ec	; 11740294
--- BL -> #0xfffffff0087966ec ---
0xfffffff0086f96ac: mov	w0, #0	; 00008052
0xfffffff0086f96b0: ldp	x29, x30, [sp], #0x10	; fd7bc1a8
--- LDP x29,x30 (possible epilogue/prologue) ---
0xfffffff0086f96b4: retab		; ff0f5fd6
0xfffffff0086f96b8: pacibsp		; 7f2303d5
0xfffffff0086f96bc: stp	x29, x30, [sp, #-0x10]!	; fd7bbfa9
0xfffffff0086f96c0: mov	x29, sp	; fd030091
0xfffffff0086f96c4: ldr	x0, [x0, #0xaf8]	; 007c45f9
0xfffffff0086f96c8: bl	#0xfffffff0087967dc	; 45740294
--- BL -> #0xfffffff0087967dc ---
0xfffffff0086f96cc: mov	w0, #0	; 00008052
0xfffffff0086f96d0: ldp	x29, x30, [sp], #0x10	; fd7bc1a8
--- LDP x29,x30 (possible epilogue/prologue) ---
0xfffffff0086f96d4: retab		; ff0f5fd6
0xfffffff0086f96d8: bti	c	; 5f2403d5
0xfffffff0086f96dc: cmp	w1, #0x80	; 3f000271
0xfffffff0086f96e0: b.gt	#0xfffffff0086f9704	; 2c010054
0xfffffff0086f96e4: add	x8, x0, #0x18	; 08600091
0xfffffff0086f96e8: add	x9, x0, #0x420	; 09801091
0xfffffff0086f96ec: cmp	w2, #1	; 5f040071
0xfffffff0086f96f0: csel	x8, x8, x9, eq	; 0801899a
0xfffffff0086f96f4: ldr	x8, [x8, w1, sxtw #3]	; 08d961f8
0xfffffff0086f96f8: cmp	x8, #0	; 1f0100f1
0xfffffff0086f96fc: cset	w0, ne	; e0079f1a
0xfffffff0086f9700: ret		; c0035fd6
--- RET (end of function) ---
================================================================================
FILEOFF: 0x016f15a0 VM: 0xfffffff0086f55a0 SCORE: 80 BL: 4 INSTRS: 30
; region fileoff=0x16f15a0 size=0x2000 base_vm=0xfffffff0086f55a0
; read file window:
; start_fileoff=0x16f05a0 end_fileoff=0x16f35a0 prologue_rel=4048
; hexdump around target:
016f1560  fd 7b 41 a9 f4 4f c2 a8 ff 0f 5f d6 7f 23 03 d5   .{A..O...._..#..
016f1570  fd 7b bf a9 fd 03 00 91 5f 04 00 71 61 00 00 54   .{......_..qa..T
016f1580  08 3c 4c b9 68 00 00 34 00 7c 45 f9 58 84 02 94   .<L.h..4.|E.X...
016f1590  00 00 80 52 fd 7b c1 a8 ff 0f 5f d6 7f 23 03 d5   ...R.{...._..#..
016f15a0  fd 7b bf a9 fd 03 00 91 00 7c 45 f9 8c 84 02 94   .{.......|E.....
016f15b0  00 00 80 52 fd 7b c1 a8 ff 0f 5f d6 5f 24 03 d5   ...R.{...._._$..
016f15c0  3f 00 02 71 2c 01 00 54 08 60 00 91 09 80 10 91   ?..q,..T.`......
016f15d0  5f 04 00 71 08 01 89 9a 08 d9 61 f8 1f 01 00 f1   _..q......a.....
; disassembly:
0xfffffff0086f5570: stp	x29, x30, [sp, #-0x10]!	; fd7bbfa9
0xfffffff0086f5574: mov	x29, sp	; fd030091
0xfffffff0086f5578: cmp	w2, #1	; 5f040071
0xfffffff0086f557c: b.ne	#0xfffffff0086f5588	; 61000054
0xfffffff0086f5580: ldr	w8, [x0, #0xc3c]	; 083c4cb9
0xfffffff0086f5584: cbz	w8, #0xfffffff0086f5590	; 68000034
0xfffffff0086f5588: ldr	x0, [x0, #0xaf8]	; 007c45f9
0xfffffff0086f558c: bl	#0xfffffff0087966ec	; 58840294
--- BL -> #0xfffffff0087966ec ---
0xfffffff0086f5590: mov	w0, #0	; 00008052
0xfffffff0086f5594: ldp	x29, x30, [sp], #0x10	; fd7bc1a8
--- LDP x29,x30 (possible epilogue/prologue) ---
0xfffffff0086f5598: retab		; ff0f5fd6
0xfffffff0086f559c: pacibsp		; 7f2303d5
0xfffffff0086f55a0: stp	x29, x30, [sp, #-0x10]!	; fd7bbfa9
0xfffffff0086f55a4: mov	x29, sp	; fd030091
0xfffffff0086f55a8: ldr	x0, [x0, #0xaf8]	; 007c45f9
0xfffffff0086f55ac: bl	#0xfffffff0087967dc	; 8c840294
--- BL -> #0xfffffff0087967dc ---
0xfffffff0086f55b0: mov	w0, #0	; 00008052
0xfffffff0086f55b4: ldp	x29, x30, [sp], #0x10	; fd7bc1a8
--- LDP x29,x30 (possible epilogue/prologue) ---
0xfffffff0086f55b8: retab		; ff0f5fd6
0xfffffff0086f55bc: bti	c	; 5f2403d5
0xfffffff0086f55c0: cmp	w1, #0x80	; 3f000271
0xfffffff0086f55c4: b.gt	#0xfffffff0086f55e8	; 2c010054
0xfffffff0086f55c8: add	x8, x0, #0x18	; 08600091
0xfffffff0086f55cc: add	x9, x0, #0x420	; 09801091
0xfffffff0086f55d0: cmp	w2, #1	; 5f040071
0xfffffff0086f55d4: csel	x8, x8, x9, eq	; 0801899a
0xfffffff0086f55d8: ldr	x8, [x8, w1, sxtw #3]	; 08d961f8
0xfffffff0086f55dc: cmp	x8, #0	; 1f0100f1
0xfffffff0086f55e0: cset	w0, ne	; e0079f1a
0xfffffff0086f55e4: ret		; c0035fd6
--- RET (end of function) ---
================================================================================
FILEOFF: 0x016f568c VM: 0xfffffff0086f968c SCORE: 80 BL: 4 INSTRS: 30
; region fileoff=0x16f568c size=0x2000 base_vm=0xfffffff0086f968c
; read file window:
; start_fileoff=0x16f468c end_fileoff=0x16f768c prologue_rel=None
; hexdump around target:
016f564c  08 35 17 91 e8 03 00 f9 c0 51 ff 90 00 40 36 91   .5.......Q...@6.
016f565c  21 98 ff 90 21 dc 41 f9 e3 51 ff b0 63 14 05 91   !...!.A..Q..c...
016f566c  02 00 80 52 b0 e6 f0 97 ff 83 09 91 fd 7b 42 a9   ...R.........{B.
016f567c  f4 4f 41 a9 f6 57 c3 a8 ff 0f 5f d6 7f 23 03 d5   .OA..W...._..#..
016f568c  fd 7b bf a9 fd 03 00 91 5f 04 00 71 61 00 00 54   .{......_..qa..T
016f569c  08 3c 4c b9 68 00 00 34 00 7c 45 f9 11 74 02 94   .<L.h..4.|E..t..
016f56ac  00 00 80 52 fd 7b c1 a8 ff 0f 5f d6 7f 23 03 d5   ...R.{...._..#..
016f56bc  fd 7b bf a9 fd 03 00 91 00 7c 45 f9 45 74 02 94   .{.......|E.Et..
; disassembly:
0xfffffff0086f968c: stp	x29, x30, [sp, #-0x10]!	; fd7bbfa9
0xfffffff0086f9690: mov	x29, sp	; fd030091
0xfffffff0086f9694: cmp	w2, #1	; 5f040071
0xfffffff0086f9698: b.ne	#0xfffffff0086f96a4	; 61000054
0xfffffff0086f969c: ldr	w8, [x0, #0xc3c]	; 083c4cb9
0xfffffff0086f96a0: cbz	w8, #0xfffffff0086f96ac	; 68000034
0xfffffff0086f96a4: ldr	x0, [x0, #0xaf8]	; 007c45f9
0xfffffff0086f96a8: bl	#0xfffffff0087966ec	; 11740294
--- BL -> #0xfffffff0087966ec ---
0xfffffff0086f96ac: mov	w0, #0	; 00008052
0xfffffff0086f96b0: ldp	x29, x30, [sp], #0x10	; fd7bc1a8
--- LDP x29,x30 (possible epilogue/prologue) ---
0xfffffff0086f96b4: retab		; ff0f5fd6
0xfffffff0086f96b8: pacibsp		; 7f2303d5
0xfffffff0086f96bc: stp	x29, x30, [sp, #-0x10]!	; fd7bbfa9
0xfffffff0086f96c0: mov	x29, sp	; fd030091
0xfffffff0086f96c4: ldr	x0, [x0, #0xaf8]	; 007c45f9
0xfffffff0086f96c8: bl	#0xfffffff0087967dc	; 45740294
--- BL -> #0xfffffff0087967dc ---
0xfffffff0086f96cc: mov	w0, #0	; 00008052
0xfffffff0086f96d0: ldp	x29, x30, [sp], #0x10	; fd7bc1a8
--- LDP x29,x30 (possible epilogue/prologue) ---
0xfffffff0086f96d4: retab		; ff0f5fd6
0xfffffff0086f96d8: bti	c	; 5f2403d5
0xfffffff0086f96dc: cmp	w1, #0x80	; 3f000271
0xfffffff0086f96e0: b.gt	#0xfffffff0086f9704	; 2c010054
0xfffffff0086f96e4: add	x8, x0, #0x18	; 08600091
0xfffffff0086f96e8: add	x9, x0, #0x420	; 09801091
0xfffffff0086f96ec: cmp	w2, #1	; 5f040071
0xfffffff0086f96f0: csel	x8, x8, x9, eq	; 0801899a
0xfffffff0086f96f4: ldr	x8, [x8, w1, sxtw #3]	; 08d961f8
0xfffffff0086f96f8: cmp	x8, #0	; 1f0100f1
0xfffffff0086f96fc: cset	w0, ne	; e0079f1a
0xfffffff0086f9700: ret		; c0035fd6
--- RET (end of function) ---
================================================================================
FILEOFF: 0x00d59570 VM: 0xfffffff007d5d570 SCORE: 75 BL: 0 INSTRS: 55
; region fileoff=0xd59570 size=0x2000 base_vm=0xfffffff007d5d570
; read file window:
; start_fileoff=0xd58570 end_fileoff=0xd5b570 prologue_rel=3828
; hexdump around target:
00d59530  00 00 00 00 00 00 00 00 00 00 00 00 00 00 00 00   ................
00d59540  00 01 02 03 04 05 06 07 08 09 0a 0b 0c 0d 0e 0f   ................
00d59550  00 00 00 00 00 00 00 00 00 00 00 00 00 00 00 00   ................
00d59560  3f 00 01 ea e4 04 00 54 20 03 00 54 7f 23 03 d5   ?......T ..T.#..
00d59570  fd 7b bf a9 fd 03 00 91 02 ec 7c 92 40 00 c0 3d   .{........|.@..=
00d59580  03 fe ff 10 62 04 c1 3c 04 0c 40 92 63 00 04 cb   ....b..<..@.c...
00d59590  61 00 c0 3d 00 1c a1 4e 21 00 04 8b 02 00 00 14   a..=...N!.......
00d595a0  40 0c c1 3c 01 a8 31 6e 23 00 26 1e 43 01 00 34   @..<..1n#.&.C..4
; disassembly:
0xfffffff007d5d464: stp	x29, x30, [sp, #-0x10]!	; fd7bbfa9
0xfffffff007d5d468: mov	x29, sp	; fd030091
0xfffffff007d5d46c: cmp	x1, #0x40	; 3f0001f1
0xfffffff007d5d470: b.lo	#0xfffffff007d5d4fc	; 63040054
0xfffffff007d5d474: mov	x2, x0	; e20300aa
0xfffffff007d5d478: add	x0, x0, #0x40	; 00000191
0xfffffff007d5d47c: and	x0, x0, #0xffffffffffffffc0	; 00e47a92
0xfffffff007d5d480: ldp	q4, q5, [x2]	; 441440ad
0xfffffff007d5d484: ldp	q6, q7, [x2, #0x20]	; 461c41ad
0xfffffff007d5d488: sub	x2, x0, x2	; 020002cb
0xfffffff007d5d48c: sub	x1, x1, x2	; 210002cb
0xfffffff007d5d490: subs	x1, x1, #0x40	; 210001f1
0xfffffff007d5d494: b.ls	#0xfffffff007d5d4bc	; 49010054
0xfffffff007d5d498: ldp	q0, q1, [x0]	; 000440ad
0xfffffff007d5d49c: ldp	q2, q3, [x0, #0x20]	; 020c41ad
0xfffffff007d5d4a0: orr	v4.16b, v4.16b, v0.16b	; 841ca04e
0xfffffff007d5d4a4: orr	v5.16b, v5.16b, v1.16b	; a51ca14e
0xfffffff007d5d4a8: orr	v6.16b, v6.16b, v2.16b	; c61ca24e
0xfffffff007d5d4ac: orr	v7.16b, v7.16b, v3.16b	; e71ca34e
0xfffffff007d5d4b0: add	x0, x0, #0x40	; 00000191
0xfffffff007d5d4b4: subs	x1, x1, #0x40	; 210001f1
0xfffffff007d5d4b8: b.hi	#0xfffffff007d5d498	; 08ffff54
0xfffffff007d5d4bc: add	x0, x0, x1	; 0000018b
0xfffffff007d5d4c0: ldp	q0, q1, [x0]	; 000440ad
0xfffffff007d5d4c4: ldp	q2, q3, [x0, #0x20]	; 020c41ad
0xfffffff007d5d4c8: orr	v4.16b, v4.16b, v0.16b	; 841ca04e
0xfffffff007d5d4cc: orr	v5.16b, v5.16b, v1.16b	; a51ca14e
0xfffffff007d5d4d0: orr	v6.16b, v6.16b, v2.16b	; c61ca24e
0xfffffff007d5d4d4: orr	v7.16b, v7.16b, v3.16b	; e71ca34e
0xfffffff007d5d4d8: orr	v4.16b, v4.16b, v5.16b	; 841ca54e
0xfffffff007d5d4dc: orr	v6.16b, v6.16b, v7.16b	; c61ca74e
0xfffffff007d5d4e0: orr	v4.16b, v4.16b, v6.16b	; 841ca64e
0xfffffff007d5d4e4: umaxv	b0, v4.16b	; 80a8306e
0xfffffff007d5d4e8: umov	w0, v0.b[0]	; 003c010e
0xfffffff007d5d4ec: tst	w0, w0	; 1f00006a
0xfffffff007d5d4f0: cset	x0, ne	; e0079f9a
0xfffffff007d5d4f4: ldp	x29, x30, [sp], #0x10	; fd7bc1a8
--- LDP x29,x30 (possible epilogue/prologue) ---
0xfffffff007d5d4f8: retab		; ff0f5fd6
0xfffffff007d5d4fc: cbz	x1, #0xfffffff007d5d524	; 410100b4
0xfffffff007d5d500: mov	x3, #0	; 030080d2
0xfffffff007d5d504: ldr	x2, [x0], #8	; 028440f8
0xfffffff007d5d508: orr	x3, x3, x2	; 630002aa
0xfffffff007d5d50c: subs	x1, x1, #8	; 212000f1
0xfffffff007d5d510: b.hi	#0xfffffff007d5d504	; a8ffff54
0xfffffff007d5d514: tst	x3, x3	; 7f0003ea
0xfffffff007d5d518: cset	x0, ne	; e0079f9a
0xfffffff007d5d51c: ldp	x29, x30, [sp], #0x10	; fd7bc1a8
--- LDP x29,x30 (possible epilogue/prologue) ---
0xfffffff007d5d520: retab		; ff0f5fd6
0xfffffff007d5d524: mov	x0, #0	; 000080d2
0xfffffff007d5d528: ldp	x29, x30, [sp], #0x10	; fd7bc1a8
--- LDP x29,x30 (possible epilogue/prologue) ---
0xfffffff007d5d52c: retab		; ff0f5fd6
0xfffffff007d5d530: udf	#0	; 00000000
0xfffffff007d5d534: udf	#0	; 00000000
0xfffffff007d5d538: udf	#0	; 00000000
0xfffffff007d5d53c: udf	#0	; 00000000
================================================================================
FILEOFF: 0x00fb00e8 VM: 0xfffffff007fb40e8 SCORE: 74 BL: 6 INSTRS: 21
; region fileoff=0xfb00e8 size=0x2000 base_vm=0xfffffff007fb40e8
; read file window:
; start_fileoff=0xfaf0e8 end_fileoff=0xfb20e8 prologue_rel=3944
; hexdump around target:
00fb00a8  a0 05 80 52 c0 03 5f d6 5f 24 03 d5 00 00 40 f9   ...R.._._$....@.
00fb00b8  20 01 00 b4 3f 04 00 71 e1 00 00 54 08 88 40 b9    ...?..q...T..@.
00fb00c8  1f 0d 00 71 80 00 00 54 e1 03 02 aa e2 03 03 aa   ...q...T........
00fb00d8  03 00 00 14 00 00 80 d2 c0 03 5f d6 7f 23 03 d5   .........._..#..
00fb00e8  fd 7b bf a9 fd 03 00 91 e8 03 01 aa 01 20 40 f9   .{........... @.
00fb00f8  81 00 00 b4 08 01 00 b4 5f 80 10 f1 82 00 00 54   ........_......T
00fb0108  00 00 80 d2 fd 7b c1 a8 ff 0f 5f d6 e2 03 08 aa   .....{...._.....
00fb0118  44 16 01 94 00 84 80 52 fd 7b c1 a8 ff 0f 5f d6   D......R.{...._.
; disassembly:
0xfffffff007fb4050: add	x29, sp, #0x10	; fd430091
0xfffffff007fb4054: mov	x19, x2	; f30302aa
0xfffffff007fb4058: mov	x3, x1	; e30301aa
0xfffffff007fb405c: ldr	x8, [x0, #0x10]	; 080840f9
0xfffffff007fb4060: ldr	x0, [x0, #0x20]	; 001040f9
0xfffffff007fb4064: mov	x1, #0	; 010080d2
0xfffffff007fb4068: mov	x2, #0	; 020080d2
0xfffffff007fb406c: mov	x4, #0	; 040080d2
0xfffffff007fb4070: mov	x17, #0xbd41	; 31a897d2
0xfffffff007fb4074: blraa	x8, x17	; 11093fd7
--- BL -> x8, x17 ---
0xfffffff007fb4078: cbz	x19, #0xfffffff007fb4080	; 530000b4
0xfffffff007fb407c: str	wzr, [x19]	; 7f0200b9
0xfffffff007fb4080: cmp	w0, #0	; 1f000071
0xfffffff007fb4084: mov	w8, #5	; a8008052
0xfffffff007fb4088: csel	w0, wzr, w8, ne	; e013881a
0xfffffff007fb408c: ldp	x29, x30, [sp, #0x10]	; fd7b41a9
--- LDP x29,x30 (possible epilogue/prologue) ---
0xfffffff007fb4090: ldp	x20, x19, [sp], #0x20	; f44fc2a8
0xfffffff007fb4094: retab		; ff0f5fd6
0xfffffff007fb4098: bti	c	; 5f2403d5
0xfffffff007fb409c: mov	w0, #0	; 00008052
0xfffffff007fb40a0: ret		; c0035fd6
--- RET (end of function) ---
================================================================================
FILEOFF: 0x01321be4 VM: 0xfffffff008325be4 SCORE: 74 BL: 6 INSTRS: 41
; region fileoff=0x1321be4 size=0x2000 base_vm=0xfffffff008325be4
; read file window:
; start_fileoff=0x1320be4 end_fileoff=0x1323be4 prologue_rel=2920
; hexdump around target:
01321ba4  81 00 00 54 94 06 00 51 08 48 74 38 28 fc ff 34   ...T...Q.Ht8(..4
01321bb4  00 00 80 52 fd 7b 42 a9 f4 4f 41 a9 f6 57 c3 a8   ...R.{B..OA..W..
01321bc4  ff 0f 5f d6 20 00 80 52 fb ff ff 17 e9 03 08 aa   .._. ..R........
01321bd4  3f 01 08 eb e0 37 9f 1a f7 ff ff 17 7f 23 03 d5   ?....7.......#..
01321be4  fd 7b bf a9 fd 03 00 91 e8 03 00 aa 10 0d 41 f8   .{............A.
01321bf4  30 01 00 b4 f1 03 08 aa d1 e1 e3 f2 30 1a c1 da   0...........0...
01321c04  f1 03 10 aa f1 47 c1 da 1f 02 11 eb 40 00 00 54   .....G......@..T
01321c14  40 8e 38 d4 08 0c 40 b9 02 fd 4e d3 e0 03 10 aa   @.8...@...N.....
; disassembly:
0xfffffff00832574c: add	x29, sp, #0x10	; fd430091
0xfffffff008325750: mov	x20, x0	; f40300aa
0xfffffff008325754: adrp	x0, #0xfffffff00a218000	; 80f700f0
0xfffffff008325758: add	x0, x0, #0x178	; 00e00591
0xfffffff00832575c: ldr	x16, [x0]	; 100040f9
0xfffffff008325760: mov	x17, x0	; f10300aa
0xfffffff008325764: movk	x17, #0xcda1, lsl #48	; 31b4f9f2
0xfffffff008325768: autda	x16, x17	; 301ac1da
0xfffffff00832576c: ldr	x8, [x16, #0x68]!	; 088e46f8
0xfffffff008325770: mov	x9, x16	; e90310aa
0xfffffff008325774: mov	x17, x9	; f10309aa
0xfffffff008325778: movk	x17, #0x1601, lsl #48	; 31c0e2f2
0xfffffff00832577c: blraa	x8, x17	; 11093fd7
--- BL -> x8, x17 ---
0xfffffff008325780: mov	x19, x0	; f30300aa
0xfffffff008325784: cbz	x0, #0xfffffff0083257e4	; 000300b4
0xfffffff008325788: ldr	x16, [x19]	; 700240f9
0xfffffff00832578c: mov	x17, x19	; f10313aa
0xfffffff008325790: movk	x17, #0xcda1, lsl #48	; 31b4f9f2
0xfffffff008325794: autda	x16, x17	; 301ac1da
0xfffffff008325798: ldr	x8, [x16, #0xd0]!	; 080e4df8
0xfffffff00832579c: mov	x9, x16	; e90310aa
0xfffffff0083257a0: mov	x0, x19	; e00313aa
0xfffffff0083257a4: mov	x1, x20	; e10314aa
0xfffffff0083257a8: mov	x17, x9	; f10309aa
0xfffffff0083257ac: movk	x17, #0x1ded, lsl #48	; b1bde3f2
0xfffffff0083257b0: blraa	x8, x17	; 11093fd7
--- BL -> x8, x17 ---
0xfffffff0083257b4: tbnz	w0, #0, #0xfffffff0083257e4	; 80010037
0xfffffff0083257b8: ldr	x16, [x19]	; 700240f9
0xfffffff0083257bc: mov	x17, x19	; f10313aa
0xfffffff0083257c0: movk	x17, #0xcda1, lsl #48	; 31b4f9f2
0xfffffff0083257c4: autda	x16, x17	; 301ac1da
0xfffffff0083257c8: ldr	x8, [x16, #0x28]!	; 088e42f8
0xfffffff0083257cc: mov	x9, x16	; e90310aa
0xfffffff0083257d0: mov	x0, x19	; e00313aa
0xfffffff0083257d4: mov	x17, x9	; f10309aa
0xfffffff0083257d8: movk	x17, #0x3a87, lsl #48	; f150e7f2
0xfffffff0083257dc: blraa	x8, x17	; 11093fd7
--- BL -> x8, x17 ---
0xfffffff0083257e0: mov	x19, #0	; 130080d2
0xfffffff0083257e4: mov	x0, x19	; e00313aa
0xfffffff0083257e8: ldp	x29, x30, [sp, #0x10]	; fd7b41a9
--- LDP x29,x30 (possible epilogue/prologue) ---
0xfffffff0083257ec: ldp	x20, x19, [sp], #0x20	; f44fc2a8
0xfffffff0083257f0: retab		; ff0f5fd6
0xfffffff0083257f4: pacibsp		; 7f2303d5
0xfffffff0083257f8: stp	x22, x21, [sp, #-0x30]!	; f657bda9
0xfffffff0083257fc: stp	x20, x19, [sp, #0x10]	; f44f01a9
0xfffffff008325800: stp	x29, x30, [sp, #0x20]	; fd7b02a9
0xfffffff008325804: add	x29, sp, #0x20	; fd830091
0xfffffff008325808: mov	x20, x2	; f40302aa
0xfffffff00832580c: mov	x21, x1	; f50301aa
0xfffffff008325810: mov	x22, x0	; f60300aa
0xfffffff008325814: adrp	x0, #0xfffffff00a218000	; 80f700f0
0xfffffff008325818: add	x0, x0, #0x178	; 00e00591
0xfffffff00832581c: ldr	x16, [x0]	; 100040f9
0xfffffff008325820: mov	x17, x0	; f10300aa
0xfffffff008325824: movk	x17, #0xcda1, lsl #48	; 31b4f9f2
0xfffffff008325828: autda	x16, x17	; 301ac1da
0xfffffff00832582c: ldr	x8, [x16, #0x68]!	; 088e46f8
0xfffffff008325830: mov	x9, x16	; e90310aa
0xfffffff008325834: mov	x17, x9	; f10309aa
0xfffffff008325838: movk	x17, #0x1601, lsl #48	; 31c0e2f2
0xfffffff00832583c: blraa	x8, x17	; 11093fd7
--- BL -> x8, x17 ---
0xfffffff008325840: mov	x19, x0	; f30300aa
0xfffffff008325844: cbz	x0, #0xfffffff0083258ac	; 400300b4
0xfffffff008325848: ldr	x16, [x19]	; 700240f9
0xfffffff00832584c: mov	x17, x19	; f10313aa
0xfffffff008325850: movk	x17, #0xcda1, lsl #48	; 31b4f9f2
0xfffffff008325854: autda	x16, x17	; 301ac1da
0xfffffff008325858: ldr	x8, [x16, #0xd8]!	; 088e4df8
0xfffffff00832585c: mov	x9, x16	; e90310aa
0xfffffff008325860: mov	x0, x19	; e00313aa
0xfffffff008325864: mov	x1, x22	; e10316aa
0xfffffff008325868: mov	x2, x21	; e20315aa
0xfffffff00832586c: mov	x3, x20	; e30314aa
0xfffffff008325870: mov	x17, x9	; f10309aa
0xfffffff008325874: movk	x17, #0x354a, lsl #48	; 51a9e6f2
0xfffffff008325878: blraa	x8, x17	; 11093fd7
--- BL -> x8, x17 ---
0xfffffff00832587c: tbnz	w0, #0, #0xfffffff0083258ac	; 80010037
0xfffffff008325880: ldr	x16, [x19]	; 700240f9
0xfffffff008325884: mov	x17, x19	; f10313aa
0xfffffff008325888: movk	x17, #0xcda1, lsl #48	; 31b4f9f2
0xfffffff00832588c: autda	x16, x17	; 301ac1da
0xfffffff008325890: ldr	x8, [x16, #0x28]!	; 088e42f8
0xfffffff008325894: mov	x9, x16	; e90310aa
0xfffffff008325898: mov	x0, x19	; e00313aa
0xfffffff00832589c: mov	x17, x9	; f10309aa
0xfffffff0083258a0: movk	x17, #0x3a87, lsl #48	; f150e7f2
0xfffffff0083258a4: blraa	x8, x17	; 11093fd7
--- BL -> x8, x17 ---
0xfffffff0083258a8: mov	x19, #0	; 130080d2
0xfffffff0083258ac: mov	x0, x19	; e00313aa
0xfffffff0083258b0: ldp	x29, x30, [sp, #0x20]	; fd7b42a9
--- LDP x29,x30 (possible epilogue/prologue) ---
0xfffffff0083258b4: ldp	x20, x19, [sp, #0x10]	; f44f41a9
0xfffffff0083258b8: ldp	x22, x21, [sp], #0x30	; f657c3a8
0xfffffff0083258bc: retab		; ff0f5fd6
0xfffffff0083258c0: pacibsp		; 7f2303d5
0xfffffff0083258c4: stp	x22, x21, [sp, #-0x30]!	; f657bda9
0xfffffff0083258c8: stp	x20, x19, [sp, #0x10]	; f44f01a9
0xfffffff0083258cc: stp	x29, x30, [sp, #0x20]	; fd7b02a9
0xfffffff0083258d0: add	x29, sp, #0x20	; fd830091
0xfffffff0083258d4: mov	x20, x1	; f40301aa
0xfffffff0083258d8: mov	x21, x0	; f50300aa
0xfffffff0083258dc: adrp	x0, #0xfffffff00a218000	; 80f700f0
0xfffffff0083258e0: add	x0, x0, #0x178	; 00e00591
0xfffffff0083258e4: ldr	x16, [x0]	; 100040f9
0xfffffff0083258e8: mov	x17, x0	; f10300aa
0xfffffff0083258ec: movk	x17, #0xcda1, lsl #48	; 31b4f9f2
0xfffffff0083258f0: autda	x16, x17	; 301ac1da
0xfffffff0083258f4: ldr	x8, [x16, #0x68]!	; 088e46f8
0xfffffff0083258f8: mov	x9, x16	; e90310aa
0xfffffff0083258fc: mov	x17, x9	; f10309aa
0xfffffff008325900: movk	x17, #0x1601, lsl #48	; 31c0e2f2
0xfffffff008325904: blraa	x8, x17	; 11093fd7
--- BL -> x8, x17 ---
0xfffffff008325908: mov	x19, x0	; f30300aa
0xfffffff00832590c: cbz	x0, #0xfffffff008325970	; 200300b4
0xfffffff008325910: ldr	x16, [x19]	; 700240f9
0xfffffff008325914: mov	x17, x19	; f10313aa
0xfffffff008325918: movk	x17, #0xcda1, lsl #48	; 31b4f9f2
0xfffffff00832591c: autda	x16, x17	; 301ac1da
0xfffffff008325920: ldr	x8, [x16, #0xe0]!	; 080e4ef8
0xfffffff008325924: mov	x9, x16	; e90310aa
0xfffffff008325928: mov	x0, x19	; e00313aa
0xfffffff00832592c: mov	x1, x21	; e10315aa
0xfffffff008325930: mov	x2, x20	; e20314aa
0xfffffff008325934: mov	x17, x9	; f10309aa
0xfffffff008325938: movk	x17, #0xb26e, lsl #48	; d14df6f2
0xfffffff00832593c: blraa	x8, x17	; 11093fd7
--- BL -> x8, x17 ---
0xfffffff008325940: tbnz	w0, #0, #0xfffffff008325970	; 80010037
0xfffffff008325944: ldr	x16, [x19]	; 700240f9
0xfffffff008325948: mov	x17, x19	; f10313aa
0xfffffff00832594c: movk	x17, #0xcda1, lsl #48	; 31b4f9f2
0xfffffff008325950: autda	x16, x17	; 301ac1da
0xfffffff008325954: ldr	x8, [x16, #0x28]!	; 088e42f8
0xfffffff008325958: mov	x9, x16	; e90310aa
0xfffffff00832595c: mov	x0, x19	; e00313aa
0xfffffff008325960: mov	x17, x9	; f10309aa
0xfffffff008325964: movk	x17, #0x3a87, lsl #48	; f150e7f2
0xfffffff008325968: blraa	x8, x17	; 11093fd7
--- BL -> x8, x17 ---
0xfffffff00832596c: mov	x19, #0	; 130080d2
0xfffffff008325970: mov	x0, x19	; e00313aa
0xfffffff008325974: ldp	x29, x30, [sp, #0x20]	; fd7b42a9
--- LDP x29,x30 (possible epilogue/prologue) ---
0xfffffff008325978: ldp	x20, x19, [sp, #0x10]	; f44f41a9
0xfffffff00832597c: ldp	x22, x21, [sp], #0x30	; f657c3a8
0xfffffff008325980: retab		; ff0f5fd6
0xfffffff008325984: pacibsp		; 7f2303d5
0xfffffff008325988: stp	x22, x21, [sp, #-0x30]!	; f657bda9
0xfffffff00832598c: stp	x20, x19, [sp, #0x10]	; f44f01a9
0xfffffff008325990: stp	x29, x30, [sp, #0x20]	; fd7b02a9
0xfffffff008325994: add	x29, sp, #0x20	; fd830091
0xfffffff008325998: mov	x20, x1	; f40301aa
0xfffffff00832599c: mov	x21, x0	; f50300aa
0xfffffff0083259a0: adrp	x0, #0xfffffff00a218000	; 80f700f0
0xfffffff0083259a4: add	x0, x0, #0x178	; 00e00591
0xfffffff0083259a8: ldr	x16, [x0]	; 100040f9
0xfffffff0083259ac: mov	x17, x0	; f10300aa
0xfffffff0083259b0: movk	x17, #0xcda1, lsl #48	; 31b4f9f2
0xfffffff0083259b4: autda	x16, x17	; 301ac1da
0xfffffff0083259b8: ldr	x8, [x16, #0x68]!	; 088e46f8
0xfffffff0083259bc: mov	x9, x16	; e90310aa
0xfffffff0083259c0: mov	x17, x9	; f10309aa
0xfffffff0083259c4: movk	x17, #0x1601, lsl #48	; 31c0e2f2
0xfffffff0083259c8: blraa	x8, x17	; 11093fd7
--- BL -> x8, x17 ---
0xfffffff0083259cc: mov	x19, x0	; f30300aa
0xfffffff0083259d0: cbz	x0, #0xfffffff008325a34	; 200300b4
0xfffffff0083259d4: ldr	x16, [x19]	; 700240f9
0xfffffff0083259d8: mov	x17, x19	; f10313aa
0xfffffff0083259dc: movk	x17, #0xcda1, lsl #48	; 31b4f9f2
0xfffffff0083259e0: autda	x16, x17	; 301ac1da
0xfffffff0083259e4: ldr	x8, [x16, #0xe8]!	; 088e4ef8
0xfffffff0083259e8: mov	x9, x16	; e90310aa
0xfffffff0083259ec: mov	x0, x19	; e00313aa
0xfffffff0083259f0: mov	x1, x21	; e10315aa
0xfffffff0083259f4: mov	x2, x20	; e20314aa
0xfffffff0083259f8: mov	x17, x9	; f10309aa
0xfffffff0083259fc: movk	x17, #0xb327, lsl #48	; f164f6f2
0xfffffff008325a00: blraa	x8, x17	; 11093fd7
--- BL -> x8, x17 ---
0xfffffff008325a04: tbnz	w0, #0, #0xfffffff008325a34	; 80010037
0xfffffff008325a08: ldr	x16, [x19]	; 700240f9
0xfffffff008325a0c: mov	x17, x19	; f10313aa
0xfffffff008325a10: movk	x17, #0xcda1, lsl #48	; 31b4f9f2
0xfffffff008325a14: autda	x16, x17	; 301ac1da
0xfffffff008325a18: ldr	x8, [x16, #0x28]!	; 088e42f8
0xfffffff008325a1c: mov	x9, x16	; e90310aa
0xfffffff008325a20: mov	x0, x19	; e00313aa
0xfffffff008325a24: mov	x17, x9	; f10309aa
0xfffffff008325a28: movk	x17, #0x3a87, lsl #48	; f150e7f2
0xfffffff008325a2c: blraa	x8, x17	; 11093fd7
--- BL -> x8, x17 ---
0xfffffff008325a30: mov	x19, #0	; 130080d2
0xfffffff008325a34: mov	x0, x19	; e00313aa
0xfffffff008325a38: ldp	x29, x30, [sp, #0x20]	; fd7b42a9
--- LDP x29,x30 (possible epilogue/prologue) ---
0xfffffff008325a3c: ldp	x20, x19, [sp, #0x10]	; f44f41a9
0xfffffff008325a40: ldp	x22, x21, [sp], #0x30	; f657c3a8
0xfffffff008325a44: retab		; ff0f5fd6
0xfffffff008325a48: bti	c	; 5f2403d5
0xfffffff008325a4c: ldr	x1, [x1]	; 210040f9
0xfffffff008325a50: ldr	x16, [x0]	; 100040f9
0xfffffff008325a54: mov	x17, x0	; f10300aa
0xfffffff008325a58: movk	x17, #0xcda1, lsl #48	; 31b4f9f2
0xfffffff008325a5c: autda	x16, x17	; 301ac1da
0xfffffff008325a60: ldr	x8, [x16, #0xf0]!	; 080e4ff8
0xfffffff008325a64: mov	x2, x16	; e20310aa
0xfffffff008325a68: mov	x16, x8	; f00308aa
0xfffffff008325a6c: mov	x17, x2	; f10302aa
0xfffffff008325a70: movk	x17, #0x5467, lsl #48	; f18ceaf2
0xfffffff008325a74: braa	x16, x17	; 110a1fd7
0xfffffff008325a78: bti	c	; 5f2403d5
0xfffffff008325a7c: ldr	x1, [x1]	; 210040f9
0xfffffff008325a80: ldr	x16, [x0]	; 100040f9
0xfffffff008325a84: mov	x17, x0	; f10300aa
0xfffffff008325a88: movk	x17, #0xcda1, lsl #48	; 31b4f9f2
0xfffffff008325a8c: autda	x16, x17	; 301ac1da
0xfffffff008325a90: mov	x17, #0x108	; 112180d2
0xfffffff008325a94: add	x16, x16, x17	; 1002118b
0xfffffff008325a98: ldr	x8, [x16]	; 080240f9
0xfffffff008325a9c: mov	x2, x16	; e20310aa
0xfffffff008325aa0: mov	x16, x8	; f00308aa
0xfffffff008325aa4: mov	x17, x2	; f10302aa
0xfffffff008325aa8: movk	x17, #0xd646, lsl #48	; d1c8faf2
0xfffffff008325aac: braa	x16, x17	; 110a1fd7
0xfffffff008325ab0: pacibsp		; 7f2303d5
0xfffffff008325ab4: stp	x22, x21, [sp, #-0x30]!	; f657bda9
0xfffffff008325ab8: stp	x20, x19, [sp, #0x10]	; f44f01a9
0xfffffff008325abc: stp	x29, x30, [sp, #0x20]	; fd7b02a9
0xfffffff008325ac0: add	x29, sp, #0x20	; fd830091
0xfffffff008325ac4: cbz	x1, #0xfffffff008325bb4	; 810700b4
0xfffffff008325ac8: mov	x21, x1	; f50301aa
0xfffffff008325acc: mov	x19, x0	; f30300aa
0xfffffff008325ad0: ldr	x16, [x1]	; 300040f9
0xfffffff008325ad4: mov	x17, x1	; f10301aa
0xfffffff008325ad8: movk	x17, #0xcda1, lsl #48	; 31b4f9f2
0xfffffff008325adc: autda	x16, x17	; 301ac1da
0xfffffff008325ae0: ldr	x8, [x16, #0xa0]!	; 080e4af8
0xfffffff008325ae4: mov	x9, x16	; e90310aa
0xfffffff008325ae8: mov	x0, x1	; e00301aa
0xfffffff008325aec: mov	x17, x9	; f10309aa
0xfffffff008325af0: movk	x17, #0xbb9b, lsl #48	; 7173f7f2
0xfffffff008325af4: blraa	x8, x17	; 11093fd7
--- BL -> x8, x17 ---
0xfffffff008325af8: mov	x20, x0	; f40300aa
0xfffffff008325afc: ldr	x16, [x21]	; b00240f9
0xfffffff008325b00: mov	x17, x21	; f10315aa
0xfffffff008325b04: movk	x17, #0xcda1, lsl #48	; 31b4f9f2
0xfffffff008325b08: autda	x16, x17	; 301ac1da
0xfffffff008325b0c: ldr	x8, [x16, #0xd8]!	; 088e4df8
0xfffffff008325b10: mov	x9, x16	; e90310aa
0xfffffff008325b14: mov	x0, x21	; e00315aa
0xfffffff008325b18: mov	x17, x9	; f10309aa
0xfffffff008325b1c: movk	x17, #0xd240, lsl #48	; 1148faf2
0xfffffff008325b20: blraa	x8, x17	; 11093fd7
--- BL -> x8, x17 ---
0xfffffff008325b24: ldr	w8, [x19, #0xc]	; 680e40b9
0xfffffff008325b28: lsr	w8, w8, #0xe	; 087d0e53
0xfffffff008325b2c: subs	w8, w20, w8	; 8802086b
0xfffffff008325b30: b.ne	#0xfffffff008325ba0	; 81030054
0xfffffff008325b34: cbz	w20, #0xfffffff008325bc8	; b4040034
0xfffffff008325b38: ldr	x16, [x19, #0x10]!	; 700e41f8
0xfffffff008325b3c: mov	x17, x19	; f10313aa
0xfffffff008325b40: movk	x17, #0x1f0e, lsl #48	; d1e1e3f2
0xfffffff008325b44: autda	x16, x17	; 301ac1da
0xfffffff008325b48: mov	x17, x16	; f10310aa
0xfffffff008325b4c: xpacd	x17	; f147c1da
0xfffffff008325b50: cmp	x16, x17	; 1f0211eb
0xfffffff008325b54: b.eq	#0xfffffff008325b5c	; 40000054
0xfffffff008325b58: brk	#0xc472	; 408e38d4
0xfffffff008325b5c: ldrb	w8, [x0]	; 08004039
0xfffffff008325b60: ldrb	w9, [x16]	; 09024039
0xfffffff008325b64: cmp	w8, w9	; 1f01096b
0xfffffff008325b68: b.ne	#0xfffffff008325bb4	; 61020054
0xfffffff008325b6c: mov	x9, #0	; 090080d2
0xfffffff008325b70: mov	w8, w20	; e803142a
0xfffffff008325b74: add	x10, x0, #1	; 0a040091
0xfffffff008325b78: add	x11, x16, #1	; 0b060091
0xfffffff008325b7c: sub	x12, x8, #1	; 0c0500d1
0xfffffff008325b80: cmp	x12, x9	; 9f0109eb
0xfffffff008325b84: b.eq	#0xfffffff008325bd0	; 60020054
0xfffffff008325b88: ldrb	w13, [x10, x9]	; 4d696938
0xfffffff008325b8c: ldrb	w14, [x11, x9]	; 6e696938
0xfffffff008325b90: add	x9, x9, #1	; 29050091
0xfffffff008325b94: cmp	w13, w14	; bf010e6b
0xfffffff008325b98: b.eq	#0xfffffff008325b80	; 40ffff54
0xfffffff008325b9c: b	#0xfffffff008325bd4	; 0e000014
0xfffffff008325ba0: cmp	w8, #1	; 1f050071
0xfffffff008325ba4: b.ne	#0xfffffff008325bb4	; 81000054
0xfffffff008325ba8: sub	w20, w20, #1	; 94060051
0xfffffff008325bac: ldrb	w8, [x0, w20, uxtw]	; 08487438
0xfffffff008325bb0: cbz	w8, #0xfffffff008325b34	; 28fcff34
0xfffffff008325bb4: mov	w0, #0	; 00008052
0xfffffff008325bb8: ldp	x29, x30, [sp, #0x20]	; fd7b42a9
--- LDP x29,x30 (possible epilogue/prologue) ---
0xfffffff008325bbc: ldp	x20, x19, [sp, #0x10]	; f44f41a9
0xfffffff008325bc0: ldp	x22, x21, [sp], #0x30	; f657c3a8
0xfffffff008325bc4: retab		; ff0f5fd6
0xfffffff008325bc8: mov	w0, #1	; 20008052
0xfffffff008325bcc: b	#0xfffffff008325bb8	; fbffff17
0xfffffff008325bd0: mov	x9, x8	; e90308aa
0xfffffff008325bd4: cmp	x9, x8	; 3f0108eb
0xfffffff008325bd8: cset	w0, hs	; e0379f1a
0xfffffff008325bdc: b	#0xfffffff008325bb8	; f7ffff17
0xfffffff008325be0: pacibsp		; 7f2303d5
0xfffffff008325be4: stp	x29, x30, [sp, #-0x10]!	; fd7bbfa9
0xfffffff008325be8: mov	x29, sp	; fd030091
0xfffffff008325bec: mov	x8, x0	; e80300aa
0xfffffff008325bf0: ldr	x16, [x8, #0x10]!	; 100d41f8
0xfffffff008325bf4: cbz	x16, #0xfffffff008325c18	; 300100b4
0xfffffff008325bf8: mov	x17, x8	; f10308aa
0xfffffff008325bfc: movk	x17, #0x1f0e, lsl #48	; d1e1e3f2
0xfffffff008325c00: autda	x16, x17	; 301ac1da
0xfffffff008325c04: mov	x17, x16	; f10310aa
0xfffffff008325c08: xpacd	x17	; f147c1da
0xfffffff008325c0c: cmp	x16, x17	; 1f0211eb
0xfffffff008325c10: b.eq	#0xfffffff008325c18	; 40000054
0xfffffff008325c14: brk	#0xc472	; 408e38d4
0xfffffff008325c18: ldr	w8, [x0, #0xc]	; 080c40b9
0xfffffff008325c1c: lsr	x2, x8, #0xe	; 02fd4ed3
0xfffffff008325c20: mov	x0, x16	; e00310aa
0xfffffff008325c24: bl	#0xfffffff007d5d690	; 9bdee897
--- BL -> #0xfffffff007d5d690 ---
0xfffffff008325c28: cmp	w0, #0	; 1f000071
0xfffffff008325c2c: cset	w0, eq	; e0179f1a
0xfffffff008325c30: ldp	x29, x30, [sp], #0x10	; fd7bc1a8
--- LDP x29,x30 (possible epilogue/prologue) ---
0xfffffff008325c34: retab		; ff0f5fd6
0xfffffff008325c38: bti	c	; 5f2403d5
0xfffffff008325c3c: ldr	w8, [x0, #0xc]	; 080c40b9
0xfffffff008325c40: ldr	w9, [x1, #0xc]	; 290c40b9
0xfffffff008325c44: eor	w8, w9, w8	; 2801084a
0xfffffff008325c48: lsr	w8, w8, #0xe	; 087d0e53
0xfffffff008325c4c: cbnz	w8, #0xfffffff008325c80	; a8010035
0xfffffff008325c50: ldr	x16, [x1, #0x10]!	; 300c41f8
0xfffffff008325c54: cbz	x16, #0xfffffff008325c88	; b00100b4
0xfffffff008325c58: mov	x17, x1	; f10301aa
0xfffffff008325c5c: movk	x17, #0x1f0e, lsl #48	; d1e1e3f2
0xfffffff008325c60: autda	x16, x17	; 301ac1da
0xfffffff008325c64: mov	x17, x16	; f10310aa
0xfffffff008325c68: xpacd	x17	; f147c1da
0xfffffff008325c6c: cmp	x16, x17	; 1f0211eb
0xfffffff008325c70: b.eq	#0xfffffff008325c78	; 40000054
0xfffffff008325c74: brk	#0xc472	; 408e38d4
0xfffffff008325c78: mov	x1, x16	; e10310aa
0xfffffff008325c7c: b	#0xfffffff008325c8c	; 04000014
0xfffffff008325c80: mov	w0, #0	; 00008052
0xfffffff008325c84: ret		; c0035fd6
--- RET (end of function) ---
================================================================================
FILEOFF: 0x00d593d0 VM: 0xfffffff007d5d3d0 SCORE: 73 BL: 0 INSTRS: 7
; region fileoff=0xd593d0 size=0x2000 base_vm=0xfffffff007d5d3d0
; read file window:
; start_fileoff=0xd583d0 end_fileoff=0xd5b3d0 prologue_rel=3928
; hexdump around target:
00d59390  c0 03 5f d6 20 74 0b d5 00 00 01 91 21 00 01 f1   .._. t......!...
00d593a0  a8 ff ff 54 c0 03 5f d6 40 0c 04 4e 00 00 00 ac   ...T.._.@..N....
00d593b0  00 00 01 ac 00 00 02 ac 00 00 03 ac 00 00 02 91   ................
00d593c0  21 00 02 f1 48 ff ff 54 c0 03 5f d6 7f 23 03 d5   !...H..T.._..#..
00d593d0  fd 7b bf a9 fd 03 00 91 a0 03 00 b4 2a fc 43 d3   .{..........*.C.
00d593e0  29 08 40 92 7f 00 00 72 f1 03 80 9a 31 02 02 ca   ).@....r....1...
00d593f0  70 c8 9b 52 30 30 d0 9a 10 32 d1 9a 10 02 40 b2   p..R00...2....@.
00d59400  ea 00 00 b4 11 84 40 f8 30 32 d0 9a 10 02 40 b2   ......@.02....@.
; disassembly:
0xfffffff007d5d328: stp	x29, x30, [sp, #-0x10]!	; fd7bbfa9
0xfffffff007d5d32c: mov	x29, sp	; fd030091
0xfffffff007d5d330: mov	x1, x0	; e10300aa
0xfffffff007d5d334: adr	x0, #0xfffffff007d5d340	; 60000010
0xfffffff007d5d338: bl	#0xfffffff00849e8fc	; 71051d94
--- BL -> #0xfffffff00849e8fc ---
0xfffffff007d5d33c: brk	#0	; 000020d4
0xfffffff007d5d340: fnmls	z20.h, p2/m, z2.h, z18.h	; 54687265
================================================================================
FILEOFF: 0x01ac5d98 VM: 0xfffffff008ac9d98 SCORE: 73 BL: 1 INSTRS: 32
; region fileoff=0x1ac5d98 size=0x2000 base_vm=0xfffffff008ac9d98
; read file window:
; start_fileoff=0x1ac4d98 end_fileoff=0x1ac7d98 prologue_rel=1356
; hexdump around target:
01ac5d58  08 82 15 91 09 b2 42 f9 e0 03 13 aa 41 00 80 52   ......B.....A..R
01ac5d68  f1 03 08 aa b1 cd e3 f2 31 09 3f d7 fd 7b 47 a9   ........1.?..{G.
01ac5d78  f4 4f 46 a9 f6 57 45 a9 f8 5f 44 a9 ff 03 02 91   .OF..WE.._D.....
01ac5d88  ff 0f 5f d6 5f 24 03 d5 59 6a e0 17 7f 23 03 d5   .._._$..Yj...#..
01ac5d98  fd 7b bf a9 fd 03 00 91 c0 c0 00 90 00 e0 09 91   .{..............
01ac5da8  a1 3f ff b0 21 d4 11 91 62 7d ff b0 42 84 41 f9   .?..!...b}..B.A.
01ac5db8  03 11 80 52 5f 67 e0 97 70 7d ff f0 10 e2 39 91   ...R_g..p}....9.
01ac5dc8  10 42 00 91 f1 03 00 aa 31 b4 f9 f2 30 0a c1 da   .B......1...0...
; disassembly:
0xfffffff008ac92e4: add	x29, sp, #0x10	; fd430091
0xfffffff008ac92e8: mov	x19, x0	; f30300aa
0xfffffff008ac92ec: adrp	x20, #0xfffffff00a2e1000	; d4c00090
0xfffffff008ac92f0: add	x20, x20, #0x278	; 94e20991
0xfffffff008ac92f4: mov	x1, x20	; e10314aa
0xfffffff008ac92f8: bl	#0xfffffff008383ee8	; fceae297
--- BL -> #0xfffffff008383ee8 ---
0xfffffff008ac92fc: adrp	x16, #0xfffffff007a78000	; 707dfff0
0xfffffff008ac9300: add	x16, x16, #0x908	; 10222491
0xfffffff008ac9304: add	x16, x16, #0x10	; 10420091
0xfffffff008ac9308: mov	x17, x0	; f10300aa
0xfffffff008ac930c: movk	x17, #0xcda1, lsl #48	; 31b4f9f2
0xfffffff008ac9310: pacda	x16, x17	; 300ac1da
0xfffffff008ac9314: str	x16, [x0]	; 100000f9
0xfffffff008ac9318: mov	x0, x20	; e00314aa
0xfffffff008ac931c: bl	#0xfffffff0082e5134	; 866fe097
--- BL -> #0xfffffff0082e5134 ---
0xfffffff008ac9320: mov	x0, x19	; e00313aa
0xfffffff008ac9324: ldp	x29, x30, [sp, #0x10]	; fd7b41a9
--- LDP x29,x30 (possible epilogue/prologue) ---
0xfffffff008ac9328: ldp	x20, x19, [sp], #0x20	; f44fc2a8
0xfffffff008ac932c: retab		; ff0f5fd6
0xfffffff008ac9330: pacibsp		; 7f2303d5
0xfffffff008ac9334: sub	sp, sp, #0xb0	; ffc302d1
0xfffffff008ac9338: stp	x28, x27, [sp, #0x50]	; fc6f05a9
0xfffffff008ac933c: stp	x26, x25, [sp, #0x60]	; fa6706a9
0xfffffff008ac9340: stp	x24, x23, [sp, #0x70]	; f85f07a9
0xfffffff008ac9344: stp	x22, x21, [sp, #0x80]	; f65708a9
0xfffffff008ac9348: stp	x20, x19, [sp, #0x90]	; f44f09a9
0xfffffff008ac934c: stp	x29, x30, [sp, #0xa0]	; fd7b0aa9
0xfffffff008ac9350: add	x29, sp, #0xa0	; fd830291
0xfffffff008ac9354: mov	x26, x2	; fa0302aa
0xfffffff008ac9358: mov	x22, x1	; f60301aa
0xfffffff008ac935c: mov	x19, x0	; f30300aa
0xfffffff008ac9360: str	xzr, [sp, #0x48]	; ff2700f9
0xfffffff008ac9364: str	wzr, [sp, #0x44]	; ff4700b9
0xfffffff008ac9368: add	x0, sp, #0x48	; e0230191
0xfffffff008ac936c: add	x1, sp, #0x44	; e1130191
0xfffffff008ac9370: bl	#0xfffffff007ed4304	; e52bd097
--- BL -> #0xfffffff007ed4304 ---
0xfffffff008ac9374: ldr	x8, [sp, #0x48]	; e82740f9
0xfffffff008ac9378: ldr	w9, [sp, #0x44]	; e94740b9
0xfffffff008ac937c: adrp	x27, #0xfffffff0072be000	; bb3fffb0
0xfffffff008ac9380: add	x27, x27, #0x58d	; 7b371691
0xfffffff008ac9384: adrp	x28, #0xfffffff0072be000	; bc3fffb0
0xfffffff008ac9388: add	x28, x28, #0x572	; 9ccb1591
0xfffffff008ac938c: stp	x28, x27, [sp, #0x10]	; fc6f01a9
0xfffffff008ac9390: stp	x8, x9, [sp]	; e82700a9
0xfffffff008ac9394: adrp	x0, #0xfffffff0072be000	; a03fffb0
0xfffffff008ac9398: add	x0, x0, #0x55d	; 00741591
0xfffffff008ac939c: bl	#0xfffffff008357020	; 2137e297
--- BL -> #0xfffffff008357020 ---
0xfffffff008ac93a0: cbz	x22, #0xfffffff008ac95ec	; 761200b4
0xfffffff008ac93a4: adrp	x8, #0xfffffff007a76000	; 687dffb0
0xfffffff008ac93a8: ldr	x8, [x8, #0x2d8]	; 086d41f9
0xfffffff008ac93ac: ldr	x1, [x8]	; 010140f9
0xfffffff008ac93b0: mov	x0, x22	; e00316aa
0xfffffff008ac93b4: bl	#0xfffffff0082e3cf4	; 506ae097
--- BL -> #0xfffffff0082e3cf4 ---
0xfffffff008ac93b8: cbz	x0, #0xfffffff008ac95ec	; a01100b4
0xfffffff008ac93bc: mov	x21, x0	; f50300aa
0xfffffff008ac93c0: ldr	x16, [x0]	; 100040f9
0xfffffff008ac93c4: mov	x17, x0	; f10300aa
0xfffffff008ac93c8: movk	x17, #0xcda1, lsl #48	; 31b4f9f2
0xfffffff008ac93cc: autda	x16, x17	; 301ac1da
0xfffffff008ac93d0: mov	x17, #0x2c0	; 115880d2
0xfffffff008ac93d4: add	x16, x16, x17	; 1002118b
0xfffffff008ac93d8: ldr	x8, [x16]	; 080240f9
0xfffffff008ac93dc: mov	x9, x16	; e90310aa
0xfffffff008ac93e0: mov	x1, x19	; e10313aa
0xfffffff008ac93e4: mov	w2, #0	; 02008052
0xfffffff008ac93e8: mov	x3, #0	; 030080d2
0xfffffff008ac93ec: mov	x17, x9	; f10309aa
0xfffffff008ac93f0: movk	x17, #0x4529, lsl #48	; 31a5e8f2
0xfffffff008ac93f4: blraa	x8, x17	; 11093fd7
--- BL -> x8, x17 ---
0xfffffff008ac93f8: ldr	x16, [x21]	; b00240f9
0xfffffff008ac93fc: mov	x17, x21	; f10315aa
0xfffffff008ac9400: movk	x17, #0xcda1, lsl #48	; 31b4f9f2
0xfffffff008ac9404: autda	x16, x17	; 301ac1da
0xfffffff008ac9408: mov	x17, x16	; f10310aa
0xfffffff008ac940c: xpacd	x17	; f147c1da
0xfffffff008ac9410: cmp	x16, x17	; 1f0211eb
0xfffffff008ac9414: b.eq	#0xfffffff008ac941c	; 40000054
0xfffffff008ac9418: brk	#0xc472	; 408e38d4
0xfffffff008ac941c: add	x8, x16, #0x5e8	; 08a21791
0xfffffff008ac9420: ldr	x9, [x16, #0x5e8]	; 09f642f9
0xfffffff008ac9424: mov	x0, x21	; e00315aa
0xfffffff008ac9428: mov	x17, x8	; f10308aa
0xfffffff008ac942c: movk	x17, #0xa59e, lsl #48	; d1b3f4f2
0xfffffff008ac9430: blraa	x9, x17	; 31093fd7
--- BL -> x9, x17 ---
0xfffffff008ac9434: ldrb	w8, [x0, #4]	; 08104039
0xfffffff008ac9438: cmp	w8, #9	; 1f250071
0xfffffff008ac943c: b.ne	#0xfffffff008ac944c	; 81000054
0xfffffff008ac9440: ldrb	w8, [x0, #5]	; 08144039
0xfffffff008ac9444: cmp	w8, #2	; 1f090071
0xfffffff008ac9448: b.lo	#0xfffffff008ac956c	; 23090054
0xfffffff008ac944c: ldr	x16, [x21]	; b00240f9
0xfffffff008ac9450: mov	x17, x21	; f10315aa
0xfffffff008ac9454: movk	x17, #0xcda1, lsl #48	; 31b4f9f2
0xfffffff008ac9458: autda	x16, x17	; 301ac1da
0xfffffff008ac945c: mov	x17, #0x5f8	; 11bf80d2
0xfffffff008ac9460: add	x16, x16, x17	; 1002118b
0xfffffff008ac9464: ldr	x8, [x16]	; 080240f9
0xfffffff008ac9468: mov	x9, x16	; e90310aa
0xfffffff008ac946c: mov	x0, x21	; e00315aa
0xfffffff008ac9470: mov	w1, #1	; 21008052
0xfffffff008ac9474: mov	x17, x9	; f10309aa
0xfffffff008ac9478: movk	x17, #0xa7af, lsl #48	; f1f5f4f2
0xfffffff008ac947c: blraa	x8, x17	; 11093fd7
--- BL -> x8, x17 ---
0xfffffff008ac9480: mov	x23, x0	; f70300aa
0xfffffff008ac9484: cbz	x0, #0xfffffff008ac97c4	; 001a00b4
0xfffffff008ac9488: mov	x0, x23	; e00317aa
0xfffffff008ac948c: mov	x1, #0	; 010080d2
0xfffffff008ac9490: mov	w2, #4	; 82008052
0xfffffff008ac9494: bl	#0xfffffff009bb66c0	; 8bb44394
--- BL -> #0xfffffff009bb66c0 ---
0xfffffff008ac9498: cbz	x0, #0xfffffff008ac95f4	; e00a00b4
0xfffffff008ac949c: mov	x24, x0	; f80300aa
0xfffffff008ac94a0: str	x26, [sp, #0x28]	; fa1700f9
0xfffffff008ac94a4: mov	w20, #0	; 14008052
0xfffffff008ac94a8: mov	w8, #0	; 08008052
0xfffffff008ac94ac: mov	w25, #0	; 19008052
0xfffffff008ac94b0: mov	w26, #0	; 1a008052
0xfffffff008ac94b4: tst	w8, #0xff	; 1f1d0072
0xfffffff008ac94b8: b.ne	#0xfffffff008ac94f8	; 01020054
0xfffffff008ac94bc: ldr	x16, [x19]	; 700240f9
0xfffffff008ac94c0: mov	x17, x19	; f10313aa
0xfffffff008ac94c4: movk	x17, #0xcda1, lsl #48	; 31b4f9f2
0xfffffff008ac94c8: autda	x16, x17	; 301ac1da
0xfffffff008ac94cc: mov	x17, #0x540	; 11a880d2
0xfffffff008ac94d0: add	x16, x16, x17	; 1002118b
0xfffffff008ac94d4: ldr	x8, [x16]	; 080240f9
0xfffffff008ac94d8: mov	x9, x16	; e90310aa
0xfffffff008ac94dc: mov	x0, x19	; e00313aa
0xfffffff008ac94e0: mov	x1, x21	; e10315aa
0xfffffff008ac94e4: mov	x2, x24	; e20318aa
0xfffffff008ac94e8: mov	x17, x9	; f10309aa
0xfffffff008ac94ec: movk	x17, #0x8ca5, lsl #48	; b194f1f2
0xfffffff008ac94f0: blraa	x8, x17	; 11093fd7
--- BL -> x8, x17 ---
0xfffffff008ac94f4: mov	x26, x0	; fa0300aa
0xfffffff008ac94f8: tst	w20, #0xff	; 9f1e0072
0xfffffff008ac94fc: b.ne	#0xfffffff008ac953c	; 01020054
0xfffffff008ac9500: ldr	x16, [x19]	; 700240f9
0xfffffff008ac9504: mov	x17, x19	; f10313aa
0xfffffff008ac9508: movk	x17, #0xcda1, lsl #48	; 31b4f9f2
0xfffffff008ac950c: autda	x16, x17	; 301ac1da
0xfffffff008ac9510: mov	x17, #0x548	; 11a980d2
0xfffffff008ac9514: add	x16, x16, x17	; 1002118b
0xfffffff008ac9518: ldr	x8, [x16]	; 080240f9
0xfffffff008ac951c: mov	x9, x16	; e90310aa
0xfffffff008ac9520: mov	x0, x19	; e00313aa
0xfffffff008ac9524: mov	x1, x21	; e10315aa
0xfffffff008ac9528: mov	x2, x24	; e20318aa
0xfffffff008ac952c: mov	x17, x9	; f10309aa
0xfffffff008ac9530: movk	x17, #0x78ae, lsl #48	; d115eff2
0xfffffff008ac9534: blraa	x8, x17	; 11093fd7
--- BL -> x8, x17 ---
0xfffffff008ac9538: mov	x25, x0	; f90300aa
0xfffffff008ac953c: mov	x0, x23	; e00317aa
0xfffffff008ac9540: mov	x1, x24	; e10318aa
0xfffffff008ac9544: mov	w2, #4	; 82008052
0xfffffff008ac9548: bl	#0xfffffff009bb66c0	; 5eb44394
--- BL -> #0xfffffff009bb66c0 ---
0xfffffff008ac954c: mov	x24, x0	; f80300aa
0xfffffff008ac9550: and	w8, w26, #1	; 48030012
0xfffffff008ac9554: and	w20, w25, #1	; 34030012
0xfffffff008ac9558: cbnz	x0, #0xfffffff008ac94b4	; e0faffb5
0xfffffff008ac955c: mov	x23, #0	; 170080d2
0xfffffff008ac9560: ldr	x26, [sp, #0x28]	; fa1740f9
0xfffffff008ac9564: cbz	w8, #0xfffffff008ac95f8	; a8040034
0xfffffff008ac9568: cbz	w20, #0xfffffff008ac95f8	; 94040034
0xfffffff008ac956c: str	xzr, [sp, #0x38]	; ff1f00f9
0xfffffff008ac9570: str	wzr, [sp, #0x34]	; ff3700b9
0xfffffff008ac9574: add	x0, sp, #0x38	; e0e30091
0xfffffff008ac9578: add	x1, sp, #0x34	; e1d30091
0xfffffff008ac957c: bl	#0xfffffff007ed4304	; 622bd097
--- BL -> #0xfffffff007ed4304 ---
0xfffffff008ac9580: ldr	x8, [sp, #0x38]	; e81f40f9
0xfffffff008ac9584: ldr	w9, [sp, #0x34]	; e93740b9
0xfffffff008ac9588: stp	x28, x27, [sp, #0x10]	; fc6f01a9
0xfffffff008ac958c: stp	x8, x9, [sp]	; e82700a9
0xfffffff008ac9590: adrp	x0, #0xfffffff0072be000	; a03fffb0
0xfffffff008ac9594: add	x0, x0, #0x593	; 004c1691
0xfffffff008ac9598: bl	#0xfffffff008357020	; a236e297
--- BL -> #0xfffffff008357020 ---
0xfffffff008ac959c: mov	w8, #0x7fffffff	; 0800b012
0xfffffff008ac95a0: str	w8, [x26]	; 480300b9
0xfffffff008ac95a4: ldr	x16, [x19]	; 700240f9
0xfffffff008ac95a8: mov	x17, x19	; f10313aa
0xfffffff008ac95ac: movk	x17, #0xcda1, lsl #48	; 31b4f9f2
0xfffffff008ac95b0: autda	x16, x17	; 301ac1da
0xfffffff008ac95b4: mov	x17, x16	; f10310aa
0xfffffff008ac95b8: xpacd	x17	; f147c1da
0xfffffff008ac95bc: cmp	x16, x17	; 1f0211eb
0xfffffff008ac95c0: b.eq	#0xfffffff008ac95c8	; 40000054
0xfffffff008ac95c4: brk	#0xc472	; 408e38d4
0xfffffff008ac95c8: add	x8, x16, #0x550	; 08421591
0xfffffff008ac95cc: ldr	x9, [x16, #0x550]	; 09aa42f9
0xfffffff008ac95d0: mov	x0, x19	; e00313aa
0xfffffff008ac95d4: mov	x1, x21	; e10315aa
0xfffffff008ac95d8: mov	x17, x8	; f10308aa
0xfffffff008ac95dc: movk	x17, #0xd9cc, lsl #48	; 9139fbf2
0xfffffff008ac95e0: blraa	x9, x17	; 31093fd7
--- BL -> x9, x17 ---
0xfffffff008ac95e4: mov	x23, x19	; f70313aa
0xfffffff008ac95e8: b	#0xfffffff008ac95f8	; 04000014
0xfffffff008ac95ec: mov	x23, #0	; 170080d2
0xfffffff008ac95f0: b	#0xfffffff008ac97fc	; 83000014
0xfffffff008ac95f4: mov	x23, #0	; 170080d2
0xfffffff008ac95f8: ldr	x16, [x22]	; d00240f9
0xfffffff008ac95fc: mov	x17, x22	; f10316aa
0xfffffff008ac9600: movk	x17, #0xcda1, lsl #48	; 31b4f9f2
0xfffffff008ac9604: autda	x16, x17	; 301ac1da
0xfffffff008ac9608: mov	x17, #0x118	; 112380d2
0xfffffff008ac960c: add	x16, x16, x17	; 1002118b
0xfffffff008ac9610: ldr	x8, [x16]	; 080240f9
0xfffffff008ac9614: mov	x9, x16	; e90310aa
0xfffffff008ac9618: adrp	x1, #0xfffffff0072be000	; a13fffb0
0xfffffff008ac961c: add	x1, x1, #0x5fb	; 21ec1791
0xfffffff008ac9620: mov	x0, x22	; e00316aa
0xfffffff008ac9624: mov	x17, x9	; f10309aa
0xfffffff008ac9628: movk	x17, #0x37a5, lsl #48	; b1f4e6f2
0xfffffff008ac962c: blraa	x8, x17	; 11093fd7
--- BL -> x8, x17 ---
0xfffffff008ac9630: adrp	x8, #0xfffffff007a76000	; 687dffb0
0xfffffff008ac9634: ldr	x8, [x8, #0x2f8]	; 087d41f9
0xfffffff008ac9638: ldr	x25, [x8]	; 190140f9
0xfffffff008ac963c: mov	x1, x25	; e10319aa
0xfffffff008ac9640: bl	#0xfffffff0082e3cf4	; ad69e097
--- BL -> #0xfffffff0082e3cf4 ---
0xfffffff008ac9644: mov	x24, x0	; f80300aa
0xfffffff008ac9648: ldr	x16, [x22]	; d00240f9
0xfffffff008ac964c: mov	x17, x22	; f10316aa
0xfffffff008ac9650: movk	x17, #0xcda1, lsl #48	; 31b4f9f2
0xfffffff008ac9654: autda	x16, x17	; 301ac1da
0xfffffff008ac9658: mov	x17, x16	; f10310aa
0xfffffff008ac965c: xpacd	x17	; f147c1da
0xfffffff008ac9660: cmp	x16, x17	; 1f0211eb
0xfffffff008ac9664: b.eq	#0xfffffff008ac966c	; 40000054
0xfffffff008ac9668: brk	#0xc472	; 408e38d4
0xfffffff008ac966c: add	x8, x16, #0x118	; 08620491
0xfffffff008ac9670: ldr	x9, [x16, #0x118]	; 098e40f9
0xfffffff008ac9674: adrp	x1, #0xfffffff0072be000	; a13fffb0
0xfffffff008ac9678: add	x1, x1, #0x605	; 21141891
0xfffffff008ac967c: mov	x0, x22	; e00316aa
0xfffffff008ac9680: mov	x17, x8	; f10308aa
0xfffffff008ac9684: movk	x17, #0x37a5, lsl #48	; b1f4e6f2
0xfffffff008ac9688: blraa	x9, x17	; 31093fd7
--- BL -> x9, x17 ---
0xfffffff008ac968c: mov	x1, x25	; e10319aa
0xfffffff008ac9690: bl	#0xfffffff0082e3cf4	; 9969e097
--- BL -> #0xfffffff0082e3cf4 ---
0xfffffff008ac9694: cmp	x24, #0	; 1f0300f1
0xfffffff008ac9698: ccmp	x0, #0, #4, ne	; 041840fa
0xfffffff008ac969c: b.eq	#0xfffffff008ac97c4	; 40090054
0xfffffff008ac96a0: mov	x22, x0	; f60300aa
0xfffffff008ac96a4: ldr	x16, [x24]	; 100340f9
0xfffffff008ac96a8: mov	x17, x24	; f10318aa
0xfffffff008ac96ac: movk	x17, #0xcda1, lsl #48	; 31b4f9f2
0xfffffff008ac96b0: autda	x16, x17	; 301ac1da
0xfffffff008ac96b4: ldr	x8, [x16, #0xa8]!	; 088e4af8
0xfffffff008ac96b8: mov	x9, x16	; e90310aa
0xfffffff008ac96bc: mov	x0, x24	; e00318aa
0xfffffff008ac96c0: mov	x17, x9	; f10309aa
0xfffffff008ac96c4: movk	x17, #0xa064, lsl #48	; 910cf4f2
0xfffffff008ac96c8: blraa	x8, x17	; 11093fd7
--- BL -> x8, x17 ---
0xfffffff008ac96cc: mov	w8, #0x1281	; 28508252
0xfffffff008ac96d0: cmp	w0, w8	; 1f00086b
0xfffffff008ac96d4: b.ne	#0xfffffff008ac97c4	; 81070054
0xfffffff008ac96d8: ldr	x16, [x22]	; d00240f9
0xfffffff008ac96dc: mov	x17, x22	; f10316aa
0xfffffff008ac96e0: movk	x17, #0xcda1, lsl #48	; 31b4f9f2
0xfffffff008ac96e4: autda	x16, x17	; 301ac1da
0xfffffff008ac96e8: ldr	x8, [x16, #0xa8]!	; 088e4af8
0xfffffff008ac96ec: mov	x9, x16	; e90310aa
0xfffffff008ac96f0: mov	x0, x22	; e00316aa
0xfffffff008ac96f4: mov	x17, x9	; f10309aa
0xfffffff008ac96f8: movk	x17, #0xa064, lsl #48	; 910cf4f2
0xfffffff008ac96fc: blraa	x8, x17	; 11093fd7
--- BL -> x8, x17 ---
0xfffffff008ac9700: cmp	w0, #0x5ac	; 1fb01671
0xfffffff008ac9704: b.ne	#0xfffffff008ac97c4	; 01060054
0xfffffff008ac9708: str	xzr, [sp, #0x38]	; ff1f00f9
0xfffffff008ac970c: str	wzr, [sp, #0x34]	; ff3700b9
0xfffffff008ac9710: add	x0, sp, #0x38	; e0e30091
0xfffffff008ac9714: add	x1, sp, #0x34	; e1d30091
0xfffffff008ac9718: bl	#0xfffffff007ed4304	; fb2ad097
--- BL -> #0xfffffff007ed4304 ---
0xfffffff008ac971c: ldr	x8, [sp, #0x38]	; e81f40f9
0xfffffff008ac9720: ldr	w9, [sp, #0x34]	; e93740b9
0xfffffff008ac9724: stp	x28, x27, [sp, #0x10]	; fc6f01a9
0xfffffff008ac9728: stp	x8, x9, [sp]	; e82700a9
0xfffffff008ac972c: adrp	x0, #0xfffffff0072be000	; a03fffb0
0xfffffff008ac9730: add	x0, x0, #0x60e	; 00381891
0xfffffff008ac9734: bl	#0xfffffff008357020	; 3b36e297
--- BL -> #0xfffffff008357020 ---
0xfffffff008ac9738: ldr	x16, [x21]	; b00240f9
0xfffffff008ac973c: mov	x17, x21	; f10315aa
0xfffffff008ac9740: movk	x17, #0xcda1, lsl #48	; 31b4f9f2
0xfffffff008ac9744: autda	x16, x17	; 301ac1da
0xfffffff008ac9748: mov	x17, x16	; f10310aa
0xfffffff008ac974c: xpacd	x17	; f147c1da
0xfffffff008ac9750: cmp	x16, x17	; 1f0211eb
0xfffffff008ac9754: b.eq	#0xfffffff008ac975c	; 40000054
0xfffffff008ac9758: brk	#0xc472	; 408e38d4
0xfffffff008ac975c: add	x8, x16, #0x2f0	; 08c20b91
0xfffffff008ac9760: ldr	x9, [x16, #0x2f0]	; 097a41f9
0xfffffff008ac9764: mov	x0, x21	; e00315aa
0xfffffff008ac9768: mov	w1, #0	; 01008052
0xfffffff008ac976c: mov	x17, x8	; f10308aa
0xfffffff008ac9770: movk	x17, #0x5ec5, lsl #48	; b1d8ebf2
0xfffffff008ac9774: blraa	x9, x17	; 31093fd7
--- BL -> x9, x17 ---
0xfffffff008ac9778: mov	w8, #0x7fffffff	; 0800b012
0xfffffff008ac977c: str	w8, [x26]	; 480300b9
0xfffffff008ac9780: ldr	x16, [x19]	; 700240f9
0xfffffff008ac9784: mov	x17, x19	; f10313aa
0xfffffff008ac9788: movk	x17, #0xcda1, lsl #48	; 31b4f9f2
0xfffffff008ac978c: autda	x16, x17	; 301ac1da
0xfffffff008ac9790: mov	x17, x16	; f10310aa
0xfffffff008ac9794: xpacd	x17	; f147c1da
0xfffffff008ac9798: cmp	x16, x17	; 1f0211eb
0xfffffff008ac979c: b.eq	#0xfffffff008ac97a4	; 40000054
0xfffffff008ac97a0: brk	#0xc472	; 408e38d4
0xfffffff008ac97a4: add	x8, x16, #0x550	; 08421591
0xfffffff008ac97a8: ldr	x9, [x16, #0x550]	; 09aa42f9
0xfffffff008ac97ac: mov	x0, x19	; e00313aa
0xfffffff008ac97b0: mov	x1, x21	; e10315aa
0xfffffff008ac97b4: mov	x17, x8	; f10308aa
0xfffffff008ac97b8: movk	x17, #0xd9cc, lsl #48	; 9139fbf2
0xfffffff008ac97bc: blraa	x9, x17	; 31093fd7
--- BL -> x9, x17 ---
0xfffffff008ac97c0: mov	x23, x19	; f70313aa
0xfffffff008ac97c4: ldr	x16, [x21]	; b00240f9
0xfffffff008ac97c8: mov	x17, x21	; f10315aa
0xfffffff008ac97cc: movk	x17, #0xcda1, lsl #48	; 31b4f9f2
0xfffffff008ac97d0: autda	x16, x17	; 301ac1da
0xfffffff008ac97d4: mov	x17, #0x2c8	; 115980d2
0xfffffff008ac97d8: add	x16, x16, x17	; 1002118b
0xfffffff008ac97dc: ldr	x8, [x16]	; 080240f9
0xfffffff008ac97e0: mov	x9, x16	; e90310aa
0xfffffff008ac97e4: mov	x0, x21	; e00315aa
0xfffffff008ac97e8: mov	x1, x19	; e10313aa
0xfffffff008ac97ec: mov	w2, #0	; 02008052
0xfffffff008ac97f0: mov	x17, x9	; f10309aa
0xfffffff008ac97f4: movk	x17, #0x639f, lsl #48	; f173ecf2
0xfffffff008ac97f8: blraa	x8, x17	; 11093fd7
--- BL -> x8, x17 ---
0xfffffff008ac97fc: mov	x0, x23	; e00317aa
0xfffffff008ac9800: ldp	x29, x30, [sp, #0xa0]	; fd7b4aa9
--- LDP x29,x30 (possible epilogue/prologue) ---
0xfffffff008ac9804: ldp	x20, x19, [sp, #0x90]	; f44f49a9
0xfffffff008ac9808: ldp	x22, x21, [sp, #0x80]	; f65748a9
0xfffffff008ac980c: ldp	x24, x23, [sp, #0x70]	; f85f47a9
0xfffffff008ac9810: ldp	x26, x25, [sp, #0x60]	; fa6746a9
0xfffffff008ac9814: ldp	x28, x27, [sp, #0x50]	; fc6f45a9
0xfffffff008ac9818: add	sp, sp, #0xb0	; ffc30291
0xfffffff008ac981c: retab		; ff0f5fd6
0xfffffff008ac9820: pacibsp		; 7f2303d5
0xfffffff008ac9824: sub	sp, sp, #0x1b0	; ffc306d1
0xfffffff008ac9828: stp	x24, x23, [sp, #0x170]	; f85f17a9
0xfffffff008ac982c: stp	x22, x21, [sp, #0x180]	; f65718a9
0xfffffff008ac9830: stp	x20, x19, [sp, #0x190]	; f44f19a9
0xfffffff008ac9834: stp	x29, x30, [sp, #0x1a0]	; fd7b1aa9
0xfffffff008ac9838: add	x29, sp, #0x1a0	; fd830691
0xfffffff008ac983c: mov	x21, x2	; f50302aa
0xfffffff008ac9840: mov	x20, x1	; f40301aa
0xfffffff008ac9844: adrp	x8, #0xfffffff007a76000	; 687dffb0
0xfffffff008ac9848: ldr	x8, [x8, #0x328]	; 089541f9
0xfffffff008ac984c: ldr	x8, [x8]	; 080140f9
0xfffffff008ac9850: stur	x8, [x29, #-0x38]	; a8831cf8
0xfffffff008ac9854: str	xzr, [sp, #0x58]	; ff2f00f9
0xfffffff008ac9858: str	wzr, [sp, #0x54]	; ff5700b9
0xfffffff008ac985c: add	x0, sp, #0x58	; e0630191
0xfffffff008ac9860: add	x1, sp, #0x54	; e1530191
0xfffffff008ac9864: bl	#0xfffffff007ed4304	; a82ad097
--- BL -> #0xfffffff007ed4304 ---
0xfffffff008ac9868: ldr	x8, [sp, #0x58]	; e82f40f9
0xfffffff008ac986c: ldr	w9, [sp, #0x54]	; e95740b9
0xfffffff008ac9870: adrp	x22, #0xfffffff0072be000	; b63fffb0
0xfffffff008ac9874: add	x22, x22, #0x670	; d6c21991
0xfffffff008ac9878: adrp	x23, #0xfffffff0072be000	; b73fffb0
0xfffffff008ac987c: add	x23, x23, #0x572	; f7ca1591
0xfffffff008ac9880: stp	x23, x22, [sp, #0x10]	; f75b01a9
0xfffffff008ac9884: stp	x8, x9, [sp]	; e82700a9
0xfffffff008ac9888: adrp	x0, #0xfffffff0072be000	; a03fffb0
0xfffffff008ac988c: add	x0, x0, #0x55d	; 00741591
0xfffffff008ac9890: bl	#0xfffffff008357020	; e435e297
--- BL -> #0xfffffff008357020 ---
0xfffffff008ac9894: mov	w19, #0	; 13008052
0xfffffff008ac9898: cbz	x20, #0xfffffff008ac98c4	; 740100b4
0xfffffff008ac989c: cbz	x21, #0xfffffff008ac98c4	; 550100b4
0xfffffff008ac98a0: ldrb	w8, [x21, #5]	; a8164039
0xfffffff008ac98a4: cmp	w8, #0xff	; 1ffd0371
0xfffffff008ac98a8: b.ne	#0xfffffff008ac98c0	; c1000054
0xfffffff008ac98ac: ldrb	w8, [x21, #6]	; a81a4039
0xfffffff008ac98b0: cmp	w8, #0xf0	; 1fc10371
0xfffffff008ac98b4: b.ne	#0xfffffff008ac98c0	; 61000054
0xfffffff008ac98b8: ldrb	w8, [x21, #7]	; a81e4039
0xfffffff008ac98bc: cbz	w8, #0xfffffff008ac98f8	; e8010034
0xfffffff008ac98c0: mov	w19, #0	; 13008052
0xfffffff008ac98c4: ldur	x8, [x29, #-0x38]	; a8835cf8
0xfffffff008ac98c8: adrp	x9, #0xfffffff007a76000	; 697dffb0
0xfffffff008ac98cc: ldr	x9, [x9, #0x328]	; 299541f9
0xfffffff008ac98d0: ldr	x9, [x9]	; 290140f9
0xfffffff008ac98d4: cmp	x9, x8	; 3f0108eb
0xfffffff008ac98d8: b.ne	#0xfffffff008ac9a2c	; a10a0054
0xfffffff008ac98dc: mov	x0, x19	; e00313aa
0xfffffff008ac98e0: ldp	x29, x30, [sp, #0x1a0]	; fd7b5aa9
--- LDP x29,x30 (possible epilogue/prologue) ---
0xfffffff008ac98e4: ldp	x20, x19, [sp, #0x190]	; f44f59a9
0xfffffff008ac98e8: ldp	x22, x21, [sp, #0x180]	; f65758a9
0xfffffff008ac98ec: ldp	x24, x23, [sp, #0x170]	; f85f57a9
0xfffffff008ac98f0: add	sp, sp, #0x1b0	; ffc30691
0xfffffff008ac98f4: retab		; ff0f5fd6
0xfffffff008ac98f8: str	xzr, [sp, #0x48]	; ff2700f9
0xfffffff008ac98fc: str	wzr, [sp, #0x44]	; ff4700b9
0xfffffff008ac9900: add	x0, sp, #0x48	; e0230191
0xfffffff008ac9904: add	x1, sp, #0x44	; e1130191
0xfffffff008ac9908: bl	#0xfffffff007ed4304	; 7f2ad097
--- BL -> #0xfffffff007ed4304 ---
0xfffffff008ac990c: ldr	x8, [sp, #0x48]	; e82740f9
0xfffffff008ac9910: ldr	w9, [sp, #0x44]	; e94740b9
0xfffffff008ac9914: stp	x23, x22, [sp, #0x10]	; f75b01a9
0xfffffff008ac9918: stp	x8, x9, [sp]	; e82700a9
0xfffffff008ac991c: adrp	x0, #0xfffffff0072be000	; a03fffb0
0xfffffff008ac9920: add	x0, x0, #0x67f	; 00fc1991
0xfffffff008ac9924: bl	#0xfffffff008357020	; bf35e297
--- BL -> #0xfffffff008357020 ---
0xfffffff008ac9928: ldrb	w1, [x21, #8]	; a1224039
0xfffffff008ac992c: ldr	x16, [x20]	; 900240f9
0xfffffff008ac9930: mov	x17, x20	; f10314aa
0xfffffff008ac9934: movk	x17, #0xcda1, lsl #48	; 31b4f9f2
0xfffffff008ac9938: autda	x16, x17	; 301ac1da
0xfffffff008ac993c: mov	x17, x16	; f10310aa
0xfffffff008ac9940: xpacd	x17	; f147c1da
0xfffffff008ac9944: cmp	x16, x17	; 1f0211eb
0xfffffff008ac9948: b.eq	#0xfffffff008ac9950	; 40000054
0xfffffff008ac994c: brk	#0xc472	; 408e38d4
0xfffffff008ac9950: add	x8, x16, #0x610	; 08421891
0xfffffff008ac9954: ldr	x9, [x16, #0x610]	; 090a43f9
0xfffffff008ac9958: mov	x0, x20	; e00314aa
0xfffffff008ac995c: mov	w2, #0x409	; 22818052
0xfffffff008ac9960: mov	x17, x8	; f10308aa
0xfffffff008ac9964: movk	x17, #0xcd97, lsl #48	; f1b2f9f2
0xfffffff008ac9968: blraa	x9, x17	; 31093fd7
--- BL -> x9, x17 ---
0xfffffff008ac996c: cbz	x0, #0xfffffff008ac98c0	; a0faffb4
0xfffffff008ac9970: ldrb	w8, [x0]	; 08004039
0xfffffff008ac9974: cmp	w8, #3	; 1f0d0071
0xfffffff008ac9978: b.lo	#0xfffffff008ac98c0	; 43faff54
0xfffffff008ac997c: add	x8, sp, #0x60	; e8830191
0xfffffff008ac9980: movi	v0.2d, #0000000000000000	; 00e4006f
0xfffffff008ac9984: stp	q0, q0, [x8, #0xe0]	; 000107ad
0xfffffff008ac9988: stp	q0, q0, [x8, #0xc0]	; 000106ad
0xfffffff008ac998c: stp	q0, q0, [x8, #0xa0]	; 000105ad
0xfffffff008ac9990: stp	q0, q0, [x8, #0x80]	; 000104ad
0xfffffff008ac9994: stp	q0, q0, [x8, #0x60]	; 000103ad
0xfffffff008ac9998: str	q0, [x8, #0x50]	; 0015803d
0xfffffff008ac999c: stp	q0, q0, [sp, #0x90]	; e08304ad
0xfffffff008ac99a0: stp	q0, q0, [sp, #0x70]	; e08303ad
0xfffffff008ac99a4: str	q0, [sp, #0x60]	; e01b803d
0xfffffff008ac99a8: mov	w8, #0x100	; 08208052
0xfffffff008ac99ac: str	x8, [sp, #0x38]	; e81f00f9
0xfffffff008ac99b0: add	x1, sp, #0x60	; e1830191
0xfffffff008ac99b4: add	x2, sp, #0x38	; e2e30091
0xfffffff008ac99b8: bl	#0xfffffff009bb8a00	; 12bc4394
--- BL -> #0xfffffff009bb8a00 ---
0xfffffff008ac99bc: cmp	w0, #0	; 1f000071
0xfffffff008ac99c0: cset	w19, eq	; f3179f1a
0xfffffff008ac99c4: cbnz	w0, #0xfffffff008ac98c4	; 00f8ff35
0xfffffff008ac99c8: add	x0, sp, #0x60	; e0830191
0xfffffff008ac99cc: bl	#0xfffffff007d5d600	; 0d4fca97
--- BL -> #0xfffffff007d5d600 ---
0xfffffff008ac99d0: cmp	x0, #0xd	; 1f3400f1
0xfffffff008ac99d4: b.ne	#0xfffffff008ac98c0	; 61f7ff54
0xfffffff008ac99d8: add	x0, sp, #0x60	; e0830191
0xfffffff008ac99dc: bl	#0xfffffff007d5d600	; 094fca97
--- BL -> #0xfffffff007d5d600 ---
0xfffffff008ac99e0: mov	x2, x0	; e20300aa
0xfffffff008ac99e4: adrp	x0, #0xfffffff0072be000	; a03fffb0
0xfffffff008ac99e8: add	x0, x0, #0x6a3	; 008c1a91
0xfffffff008ac99ec: add	x1, sp, #0x60	; e1830191
0xfffffff008ac99f0: bl	#0xfffffff007d5d690	; 284fca97
--- BL -> #0xfffffff007d5d690 ---
0xfffffff008ac99f4: cbnz	w0, #0xfffffff008ac98c0	; 60f6ff35
0xfffffff008ac99f8: str	xzr, [sp, #0x30]	; ff1b00f9
0xfffffff008ac99fc: str	wzr, [sp, #0x2c]	; ff2f00b9
0xfffffff008ac9a00: add	x0, sp, #0x30	; e0c30091
0xfffffff008ac9a04: add	x1, sp, #0x2c	; e1b30091
0xfffffff008ac9a08: bl	#0xfffffff007ed4304	; 3f2ad097
--- BL -> #0xfffffff007ed4304 ---
0xfffffff008ac9a0c: ldr	x8, [sp, #0x30]	; e81b40f9
0xfffffff008ac9a10: ldr	w9, [sp, #0x2c]	; e92f40b9
0xfffffff008ac9a14: stp	x23, x22, [sp, #0x10]	; f75b01a9
0xfffffff008ac9a18: stp	x8, x9, [sp]	; e82700a9
0xfffffff008ac9a1c: adrp	x0, #0xfffffff0072be000	; a03fffb0
0xfffffff008ac9a20: add	x0, x0, #0x6b1	; 00c41a91
0xfffffff008ac9a24: bl	#0xfffffff008357020	; 7f35e297
--- BL -> #0xfffffff008357020 ---
0xfffffff008ac9a28: b	#0xfffffff008ac98c4	; a7ffff17
0xfffffff008ac9a2c: bl	#0xfffffff007d5de4c	; 0851ca97
--- BL -> #0xfffffff007d5de4c ---
0xfffffff008ac9a30: pacibsp		; 7f2303d5
0xfffffff008ac9a34: sub	sp, sp, #0x70	; ffc301d1
0xfffffff008ac9a38: stp	x22, x21, [sp, #0x40]	; f65704a9
0xfffffff008ac9a3c: stp	x20, x19, [sp, #0x50]	; f44f05a9
0xfffffff008ac9a40: stp	x29, x30, [sp, #0x60]	; fd7b06a9
0xfffffff008ac9a44: add	x29, sp, #0x60	; fd830191
0xfffffff008ac9a48: mov	x19, x2	; f30302aa
0xfffffff008ac9a4c: mov	x20, x1	; f40301aa
0xfffffff008ac9a50: stur	xzr, [x29, #-0x28]	; bf831df8
0xfffffff008ac9a54: stur	wzr, [x29, #-0x2c]	; bf431db8
0xfffffff008ac9a58: sub	x0, x29, #0x28	; a0a300d1
0xfffffff008ac9a5c: sub	x1, x29, #0x2c	; a1b300d1
0xfffffff008ac9a60: bl	#0xfffffff007ed4304	; 292ad097
--- BL -> #0xfffffff007ed4304 ---
0xfffffff008ac9a64: ldur	x8, [x29, #-0x28]	; a8835df8
0xfffffff008ac9a68: ldur	w9, [x29, #-0x2c]	; a9435db8
0xfffffff008ac9a6c: adrp	x21, #0xfffffff0072be000	; b53fffb0
0xfffffff008ac9a70: add	x21, x21, #0x6dc	; b5721b91
0xfffffff008ac9a74: adrp	x22, #0xfffffff0072be000	; b63fffb0
0xfffffff008ac9a78: add	x22, x22, #0x572	; d6ca1591
0xfffffff008ac9a7c: stp	x22, x21, [sp, #0x10]	; f65701a9
0xfffffff008ac9a80: stp	x8, x9, [sp]	; e82700a9
0xfffffff008ac9a84: adrp	x0, #0xfffffff0072be000	; a03fffb0
0xfffffff008ac9a88: add	x0, x0, #0x55d	; 00741591
0xfffffff008ac9a8c: bl	#0xfffffff008357020	; 6535e297
--- BL -> #0xfffffff008357020 ---
0xfffffff008ac9a90: mov	w0, #0	; 00008052
0xfffffff008ac9a94: cbz	x20, #0xfffffff008ac9b44	; 940500b4
0xfffffff008ac9a98: cbz	x19, #0xfffffff008ac9b44	; 730500b4
0xfffffff008ac9a9c: ldrb	w8, [x19, #5]	; 68164039
0xfffffff008ac9aa0: cmp	w8, #0xa	; 1f290071
0xfffffff008ac9aa4: b.eq	#0xfffffff008ac9af4	; 80020054
0xfffffff008ac9aa8: cmp	w8, #2	; 1f090071
0xfffffff008ac9aac: b.ne	#0xfffffff008ac9b40	; a1040054
0xfffffff008ac9ab0: ldrb	w8, [x19, #6]	; 681a4039
0xfffffff008ac9ab4: cmp	w8, #0xd	; 1f350071
0xfffffff008ac9ab8: b.ne	#0xfffffff008ac9b40	; 41040054
0xfffffff008ac9abc: ldrb	w8, [x19, #7]	; 681e4039
0xfffffff008ac9ac0: cbnz	w8, #0xfffffff008ac9b40	; 08040035
0xfffffff008ac9ac4: str	xzr, [sp, #0x28]	; ff1700f9
0xfffffff008ac9ac8: str	wzr, [sp, #0x24]	; ff2700b9
0xfffffff008ac9acc: add	x0, sp, #0x28	; e0a30091
0xfffffff008ac9ad0: add	x1, sp, #0x24	; e1930091
0xfffffff008ac9ad4: bl	#0xfffffff007ed4304	; 0c2ad097
--- BL -> #0xfffffff007ed4304 ---
0xfffffff008ac9ad8: ldr	x8, [sp, #0x28]	; e81740f9
0xfffffff008ac9adc: ldr	w9, [sp, #0x24]	; e92740b9
0xfffffff008ac9ae0: stp	x22, x21, [sp, #0x10]	; f65701a9
0xfffffff008ac9ae4: stp	x8, x9, [sp]	; e82700a9
0xfffffff008ac9ae8: adrp	x0, #0xfffffff0072be000	; a03fffb0
0xfffffff008ac9aec: add	x0, x0, #0x6eb	; 00ac1b91
0xfffffff008ac9af0: b	#0xfffffff008ac9b34	; 11000014
0xfffffff008ac9af4: ldrb	w8, [x19, #6]	; 681a4039
0xfffffff008ac9af8: cbnz	w8, #0xfffffff008ac9b40	; 48020035
0xfffffff008ac9afc: ldrb	w8, [x19, #7]	; 681e4039
0xfffffff008ac9b00: cmp	w8, #1	; 1f050071
0xfffffff008ac9b04: b.ne	#0xfffffff008ac9b40	; e1010054
0xfffffff008ac9b08: str	xzr, [sp, #0x28]	; ff1700f9
0xfffffff008ac9b0c: str	wzr, [sp, #0x24]	; ff2700b9
0xfffffff008ac9b10: add	x0, sp, #0x28	; e0a30091
0xfffffff008ac9b14: add	x1, sp, #0x24	; e1930091
0xfffffff008ac9b18: bl	#0xfffffff007ed4304	; fb29d097
--- BL -> #0xfffffff007ed4304 ---
0xfffffff008ac9b1c: ldr	x8, [sp, #0x28]	; e81740f9
0xfffffff008ac9b20: ldr	w9, [sp, #0x24]	; e92740b9
0xfffffff008ac9b24: stp	x22, x21, [sp, #0x10]	; f65701a9
0xfffffff008ac9b28: stp	x8, x9, [sp]	; e82700a9
0xfffffff008ac9b2c: adrp	x0, #0xfffffff0072be000	; a03fffb0
0xfffffff008ac9b30: add	x0, x0, #0x717	; 005c1c91
0xfffffff008ac9b34: bl	#0xfffffff008357020	; 3b35e297
--- BL -> #0xfffffff008357020 ---
0xfffffff008ac9b38: mov	w0, #1	; 20008052
0xfffffff008ac9b3c: b	#0xfffffff008ac9b44	; 02000014
0xfffffff008ac9b40: mov	w0, #0	; 00008052
0xfffffff008ac9b44: ldp	x29, x30, [sp, #0x60]	; fd7b46a9
--- LDP x29,x30 (possible epilogue/prologue) ---
0xfffffff008ac9b48: ldp	x20, x19, [sp, #0x50]	; f44f45a9
0xfffffff008ac9b4c: ldp	x22, x21, [sp, #0x40]	; f65744a9
0xfffffff008ac9b50: add	sp, sp, #0x70	; ffc30191
0xfffffff008ac9b54: retab		; ff0f5fd6
0xfffffff008ac9b58: pacibsp		; 7f2303d5
0xfffffff008ac9b5c: sub	sp, sp, #0x80	; ff0302d1
0xfffffff008ac9b60: stp	x24, x23, [sp, #0x40]	; f85f04a9
0xfffffff008ac9b64: stp	x22, x21, [sp, #0x50]	; f65705a9
0xfffffff008ac9b68: stp	x20, x19, [sp, #0x60]	; f44f06a9
0xfffffff008ac9b6c: stp	x29, x30, [sp, #0x70]	; fd7b07a9
0xfffffff008ac9b70: add	x29, sp, #0x70	; fdc30191
0xfffffff008ac9b74: mov	x20, x1	; f40301aa
0xfffffff008ac9b78: str	xzr, [sp, #0x38]	; ff1f00f9
0xfffffff008ac9b7c: str	wzr, [sp, #0x34]	; ff3700b9
0xfffffff008ac9b80: add	x0, sp, #0x38	; e0e30091
0xfffffff008ac9b84: add	x1, sp, #0x34	; e1d30091
0xfffffff008ac9b88: bl	#0xfffffff007ed4304	; df29d097
--- BL -> #0xfffffff007ed4304 ---
0xfffffff008ac9b8c: ldr	x8, [sp, #0x38]	; e81f40f9
0xfffffff008ac9b90: ldr	w9, [sp, #0x34]	; e93740b9
0xfffffff008ac9b94: adrp	x22, #0xfffffff0072be000	; b63fffb0
0xfffffff008ac9b98: add	x22, x22, #0x740	; d6021d91
0xfffffff008ac9b9c: adrp	x23, #0xfffffff0072be000	; b73fffb0
0xfffffff008ac9ba0: add	x23, x23, #0x572	; f7ca1591
0xfffffff008ac9ba4: stp	x23, x22, [sp, #0x10]	; f75b01a9
0xfffffff008ac9ba8: stp	x8, x9, [sp]	; e82700a9
0xfffffff008ac9bac: adrp	x0, #0xfffffff0072be000	; a03fffb0
0xfffffff008ac9bb0: add	x0, x0, #0x55d	; 00741591
0xfffffff008ac9bb4: bl	#0xfffffff008357020	; 1b35e297
--- BL -> #0xfffffff008357020 ---
0xfffffff008ac9bb8: adrp	x0, #0xfffffff0072be000	; a03fffb0
0xfffffff008ac9bbc: add	x0, x0, #0x750	; 00401d91
0xfffffff008ac9bc0: mov	x1, #0	; 010080d2
0xfffffff008ac9bc4: bl	#0xfffffff00838a090	; 3301e397
--- BL -> #0xfffffff00838a090 ---
0xfffffff008ac9bc8: cbz	x0, #0xfffffff008ac9d74	; 600d00b4
0xfffffff008ac9bcc: mov	x21, x0	; f50300aa
0xfffffff008ac9bd0: bl	#0xfffffff0083897ec	; 07ffe297
--- BL -> #0xfffffff0083897ec ---
0xfffffff008ac9bd4: mov	x19, x0	; f30300aa
0xfffffff008ac9bd8: ldr	x16, [x21]	; b00240f9
0xfffffff008ac9bdc: mov	x17, x21	; f10315aa
0xfffffff008ac9be0: movk	x17, #0xcda1, lsl #48	; 31b4f9f2
0xfffffff008ac9be4: autda	x16, x17	; 301ac1da
0xfffffff008ac9be8: ldr	x8, [x16, #0x28]!	; 088e42f8
0xfffffff008ac9bec: mov	x9, x16	; e90310aa
0xfffffff008ac9bf0: mov	x0, x21	; e00315aa
0xfffffff008ac9bf4: mov	x17, x9	; f10309aa
0xfffffff008ac9bf8: movk	x17, #0x3a87, lsl #48	; f150e7f2
0xfffffff008ac9bfc: blraa	x8, x17	; 11093fd7
--- BL -> x8, x17 ---
0xfffffff008ac9c00: cbz	x19, #0xfffffff008ac9cbc	; f30500b4
0xfffffff008ac9c04: adrp	x8, #0xfffffff007a76000	; 687dffb0
0xfffffff008ac9c08: ldr	x8, [x8, #0x2e0]	; 087141f9
0xfffffff008ac9c0c: ldr	x1, [x8]	; 010140f9
0xfffffff008ac9c10: mov	x0, x19	; e00313aa
0xfffffff008ac9c14: bl	#0xfffffff0082e3cf4	; 3868e097
--- BL -> #0xfffffff0082e3cf4 ---
0xfffffff008ac9c18: cbz	x0, #0xfffffff008ac9c90	; c00300b4
0xfffffff008ac9c1c: mov	x20, x0	; f40300aa
0xfffffff008ac9c20: str	xzr, [sp, #0x28]	; ff1700f9
0xfffffff008ac9c24: str	wzr, [sp, #0x24]	; ff2700b9
0xfffffff008ac9c28: add	x0, sp, #0x28	; e0a30091
0xfffffff008ac9c2c: add	x1, sp, #0x24	; e1930091
0xfffffff008ac9c30: bl	#0xfffffff007ed4304	; b529d097
--- BL -> #0xfffffff007ed4304 ---
0xfffffff008ac9c34: ldr	x8, [sp, #0x28]	; e81740f9
0xfffffff008ac9c38: ldr	w9, [sp, #0x24]	; e92740b9
0xfffffff008ac9c3c: stp	x23, x22, [sp, #0x10]	; f75b01a9
0xfffffff008ac9c40: stp	x8, x9, [sp]	; e82700a9
0xfffffff008ac9c44: adrp	x0, #0xfffffff0072be000	; a03fffb0
0xfffffff008ac9c48: add	x0, x0, #0x76a	; 00a81d91
0xfffffff008ac9c4c: bl	#0xfffffff008357020	; f534e297
--- BL -> #0xfffffff008357020 ---
0xfffffff008ac9c50: ldr	x16, [x20]	; 900240f9
0xfffffff008ac9c54: mov	x17, x20	; f10314aa
0xfffffff008ac9c58: movk	x17, #0xcda1, lsl #48	; 31b4f9f2
0xfffffff008ac9c5c: autda	x16, x17	; 301ac1da
0xfffffff008ac9c60: mov	x17, x16	; f10310aa
0xfffffff008ac9c64: xpacd	x17	; f147c1da
0xfffffff008ac9c68: cmp	x16, x17	; 1f0211eb
0xfffffff008ac9c6c: b.eq	#0xfffffff008ac9c74	; 40000054
0xfffffff008ac9c70: brk	#0xc472	; 408e38d4
0xfffffff008ac9c74: add	x8, x16, #0x560	; 08821591
0xfffffff008ac9c78: ldr	x9, [x16, #0x560]	; 09b242f9
0xfffffff008ac9c7c: mov	x0, x20	; e00314aa
0xfffffff008ac9c80: mov	w1, #2	; 41008052
0xfffffff008ac9c84: mov	x17, x8	; f10308aa
0xfffffff008ac9c88: movk	x17, #0x1e6d, lsl #48	; b1cde3f2
0xfffffff008ac9c8c: blraa	x9, x17	; 31093fd7
--- BL -> x9, x17 ---
0xfffffff008ac9c90: ldr	x16, [x19]	; 700240f9
0xfffffff008ac9c94: mov	x17, x19	; f10313aa
0xfffffff008ac9c98: movk	x17, #0xcda1, lsl #48	; 31b4f9f2
0xfffffff008ac9c9c: autda	x16, x17	; 301ac1da
0xfffffff008ac9ca0: ldr	x8, [x16, #0x28]!	; 088e42f8
0xfffffff008ac9ca4: mov	x9, x16	; e90310aa
0xfffffff008ac9ca8: mov	x0, x19	; e00313aa
0xfffffff008ac9cac: mov	x17, x9	; f10309aa
0xfffffff008ac9cb0: movk	x17, #0x3a87, lsl #48	; f150e7f2
0xfffffff008ac9cb4: blraa	x8, x17	; 11093fd7
--- BL -> x8, x17 ---
0xfffffff008ac9cb8: b	#0xfffffff008ac9d74	; 2f000014
0xfffffff008ac9cbc: ldr	x16, [x20]	; 900240f9
0xfffffff008ac9cc0: mov	x17, x20	; f10314aa
0xfffffff008ac9cc4: movk	x17, #0xcda1, lsl #48	; 31b4f9f2
0xfffffff008ac9cc8: autda	x16, x17	; 301ac1da
0xfffffff008ac9ccc: mov	x17, #0x370	; 116e80d2
0xfffffff008ac9cd0: add	x16, x16, x17	; 1002118b
0xfffffff008ac9cd4: ldr	x8, [x16]	; 080240f9
0xfffffff008ac9cd8: mov	x9, x16	; e90310aa
0xfffffff008ac9cdc: mov	x0, x20	; e00314aa
0xfffffff008ac9ce0: mov	x17, x9	; f10309aa
0xfffffff008ac9ce4: movk	x17, #0x93b7, lsl #48	; f176f2f2
0xfffffff008ac9ce8: blraa	x8, x17	; 11093fd7
--- BL -> x8, x17 ---
0xfffffff008ac9cec: adrp	x8, #0xfffffff007a76000	; 687dffb0
0xfffffff008ac9cf0: ldr	x8, [x8, #0x2e0]	; 087141f9
0xfffffff008ac9cf4: ldr	x1, [x8]	; 010140f9
0xfffffff008ac9cf8: bl	#0xfffffff0082e3cf4	; ff67e097
--- BL -> #0xfffffff0082e3cf4 ---
0xfffffff008ac9cfc: cbz	x0, #0xfffffff008ac9d74	; c00300b4
0xfffffff008ac9d00: mov	x19, x0	; f30300aa
0xfffffff008ac9d04: str	xzr, [sp, #0x28]	; ff1700f9
0xfffffff008ac9d08: str	wzr, [sp, #0x24]	; ff2700b9
0xfffffff008ac9d0c: add	x0, sp, #0x28	; e0a30091
0xfffffff008ac9d10: add	x1, sp, #0x24	; e1930091
0xfffffff008ac9d14: bl	#0xfffffff007ed4304	; 7c29d097
--- BL -> #0xfffffff007ed4304 ---
0xfffffff008ac9d18: ldr	x8, [sp, #0x28]	; e81740f9
0xfffffff008ac9d1c: ldr	w9, [sp, #0x24]	; e92740b9
0xfffffff008ac9d20: stp	x23, x22, [sp, #0x10]	; f75b01a9
0xfffffff008ac9d24: stp	x8, x9, [sp]	; e82700a9
0xfffffff008ac9d28: adrp	x0, #0xfffffff0072be000	; a03fffb0
0xfffffff008ac9d2c: add	x0, x0, #0x76a	; 00a81d91
0xfffffff008ac9d30: bl	#0xfffffff008357020	; bc34e297
--- BL -> #0xfffffff008357020 ---
0xfffffff008ac9d34: ldr	x16, [x19]	; 700240f9
0xfffffff008ac9d38: mov	x17, x19	; f10313aa
0xfffffff008ac9d3c: movk	x17, #0xcda1, lsl #48	; 31b4f9f2
0xfffffff008ac9d40: autda	x16, x17	; 301ac1da
0xfffffff008ac9d44: mov	x17, x16	; f10310aa
0xfffffff008ac9d48: xpacd	x17	; f147c1da
0xfffffff008ac9d4c: cmp	x16, x17	; 1f0211eb
0xfffffff008ac9d50: b.eq	#0xfffffff008ac9d58	; 40000054
0xfffffff008ac9d54: brk	#0xc472	; 408e38d4
0xfffffff008ac9d58: add	x8, x16, #0x560	; 08821591
0xfffffff008ac9d5c: ldr	x9, [x16, #0x560]	; 09b242f9
0xfffffff008ac9d60: mov	x0, x19	; e00313aa
0xfffffff008ac9d64: mov	w1, #2	; 41008052
0xfffffff008ac9d68: mov	x17, x8	; f10308aa
0xfffffff008ac9d6c: movk	x17, #0x1e6d, lsl #48	; b1cde3f2
0xfffffff008ac9d70: blraa	x9, x17	; 31093fd7
--- BL -> x9, x17 ---
0xfffffff008ac9d74: ldp	x29, x30, [sp, #0x70]	; fd7b47a9
--- LDP x29,x30 (possible epilogue/prologue) ---
0xfffffff008ac9d78: ldp	x20, x19, [sp, #0x60]	; f44f46a9
0xfffffff008ac9d7c: ldp	x22, x21, [sp, #0x50]	; f65745a9
0xfffffff008ac9d80: ldp	x24, x23, [sp, #0x40]	; f85f44a9
0xfffffff008ac9d84: add	sp, sp, #0x80	; ff030291
0xfffffff008ac9d88: retab		; ff0f5fd6
0xfffffff008ac9d8c: bti	c	; 5f2403d5
0xfffffff008ac9d90: b	#0xfffffff0082e46f4	; 596ae017
0xfffffff008ac9d94: pacibsp		; 7f2303d5
0xfffffff008ac9d98: stp	x29, x30, [sp, #-0x10]!	; fd7bbfa9
0xfffffff008ac9d9c: mov	x29, sp	; fd030091
0xfffffff008ac9da0: adrp	x0, #0xfffffff00a2e1000	; c0c00090
0xfffffff008ac9da4: add	x0, x0, #0x278	; 00e00991
0xfffffff008ac9da8: adrp	x1, #0xfffffff0072be000	; a13fffb0
0xfffffff008ac9dac: add	x1, x1, #0x475	; 21d41191
0xfffffff008ac9db0: adrp	x2, #0xfffffff007a76000	; 627dffb0
0xfffffff008ac9db4: ldr	x2, [x2, #0x308]	; 428441f9
0xfffffff008ac9db8: mov	w3, #0x88	; 03118052
0xfffffff008ac9dbc: bl	#0xfffffff0082e3b38	; 5f67e097
--- BL -> #0xfffffff0082e3b38 ---
0xfffffff008ac9dc0: adrp	x16, #0xfffffff007a78000	; 707dfff0
0xfffffff008ac9dc4: add	x16, x16, #0xe78	; 10e23991
0xfffffff008ac9dc8: add	x16, x16, #0x10	; 10420091
0xfffffff008ac9dcc: mov	x17, x0	; f10300aa
0xfffffff008ac9dd0: movk	x17, #0xcda1, lsl #48	; 31b4f9f2
0xfffffff008ac9dd4: pacda	x16, x17	; 300ac1da
0xfffffff008ac9dd8: str	x16, [x0]	; 100000f9
0xfffffff008ac9ddc: ldp	x29, x30, [sp], #0x10	; fd7bc1a8
--- LDP x29,x30 (possible epilogue/prologue) ---
0xfffffff008ac9de0: retab		; ff0f5fd6
0xfffffff008ac9de4: bti	c	; 5f2403d5
0xfffffff008ac9de8: adrp	x0, #0xfffffff00a2e1000	; c0c00090
0xfffffff008ac9dec: add	x0, x0, #0x278	; 00e00991
0xfffffff008ac9df0: b	#0xfffffff0082e46f4	; 416ae017
0xfffffff008ac9df4: bti	c	; 5f2403d5
0xfffffff008ac9df8: adrp	x8, #0xfffffff00a2e1000	; c8c00090
0xfffffff008ac9dfc: add	x8, x8, #0x168	; 08a10591
0xfffffff008ac9e00: ldr	x16, [x8]	; 100140f9
0xfffffff008ac9e04: cbz	x16, #0xfffffff008ac9e10	; 700000b4
0xfffffff008ac9e08: mov	x17, #0xe4fe	; d19f9cd2
0xfffffff008ac9e0c: braa	x16, x17	; 110a1fd7
0xfffffff008ac9e10: mov	w0, #0	; 00008052
0xfffffff008ac9e14: ret		; c0035fd6
--- RET (end of function) ---
================================================================================
